; ModuleID = '/home/scoobydoo/Desktop/CTF/tamuctf_2020/rev/just_bc/just-bc.bin'
source_filename = "just_bc.6bksiek5-cgu.0"
target datalayout = "e-m:e-i64:64-f80:128-n8:16:32:64-S128"
target triple = "x86_64-unknown-linux-gnu"

%"std::io::error::Error" = type { [0 x i64], %"std::io::error::Repr", [0 x i64] }
%"std::io::error::Repr" = type { [0 x i8], i8, [15 x i8] }
%"core::fmt::Formatter" = type { [0 x i64], { i64, i64 }, [0 x i64], { i64, i64 }, [0 x i64], { {}*, [3 x i64]* }, [0 x i64], { i64*, i64* }, [0 x i64], { [0 x { i8*, i8* }]*, i64 }, [0 x i32], i32, [0 x i32], i32, [0 x i8], i8, [7 x i8] }
%"std::thread::local::AccessError" = type { [0 x i8], {}, [0 x i8] }
%"core::cell::BorrowMutError" = type { [0 x i8], {}, [0 x i8] }
%"tokio::park::either::Either<std::io::error::Error, ()>" = type { [0 x i8], i8, [15 x i8] }
%"core::alloc::LayoutErr" = type { [0 x i8], {}, [0 x i8] }
%"mio::net::tcp::TcpListener" = type { [0 x i64], %"mio::poll::SelectorId", [0 x i32], i32, [1 x i32] }
%"mio::poll::SelectorId" = type { [0 x i64], %"core::sync::atomic::AtomicUsize", [0 x i64] }
%"core::sync::atomic::AtomicUsize" = type { [0 x i64], i64, [0 x i64] }
%"core::result::Result<(), std::io::error::Error>" = type { [0 x i8], i8, [15 x i8] }
%"mio::poll::Poll" = type { [0 x i64], { i64, i32 }, [0 x i64], i64*, [0 x i64], %"core::sync::atomic::AtomicUsize", [0 x i64], %"std::sync::mutex::Mutex<()>", [0 x i64], %"std::sync::condvar::Condvar", [0 x i64] }
%"std::sync::mutex::Mutex<()>" = type { [0 x i64], %"std::sys_common::mutex::Mutex"*, [0 x i8], %"std::sys_common::poison::Flag", [0 x i8], %"core::cell::UnsafeCell<()>", [7 x i8] }
%"std::sys_common::mutex::Mutex" = type { [0 x i64], %"std::sys::unix::mutex::Mutex", [0 x i64] }
%"std::sys::unix::mutex::Mutex" = type { [0 x i64], %"core::cell::UnsafeCell<libc::unix::linux_like::linux::pthread_mutex_t>", [0 x i64] }
%"core::cell::UnsafeCell<libc::unix::linux_like::linux::pthread_mutex_t>" = type { [0 x i64], %"libc::unix::linux_like::linux::pthread_mutex_t", [0 x i64] }
%"libc::unix::linux_like::linux::pthread_mutex_t" = type { [0 x i8], [40 x i8], [0 x i8] }
%"std::sys_common::poison::Flag" = type { [0 x i8], %"core::sync::atomic::AtomicBool", [0 x i8] }
%"core::sync::atomic::AtomicBool" = type { [0 x i8], i8, [0 x i8] }
%"core::cell::UnsafeCell<()>" = type { [0 x i8], {}, [0 x i8] }
%"std::sync::condvar::Condvar" = type { [0 x i64], %"std::sys_common::condvar::Condvar"*, [0 x i64], %"core::sync::atomic::AtomicUsize", [0 x i64] }
%"std::sys_common::condvar::Condvar" = type { [0 x i64], %"std::sys::unix::condvar::Condvar", [0 x i64] }
%"std::sys::unix::condvar::Condvar" = type { [0 x i64], %"core::cell::UnsafeCell<libc::unix::linux_like::linux::pthread_cond_t>", [0 x i64] }
%"core::cell::UnsafeCell<libc::unix::linux_like::linux::pthread_cond_t>" = type { [0 x i64], %"libc::unix::linux_like::linux::pthread_cond_t", [0 x i64] }
%"libc::unix::linux_like::linux::pthread_cond_t" = type { [0 x i8], [48 x i8], [0 x i8] }
%"mio::net::tcp::TcpStream" = type { [0 x i64], %"mio::poll::SelectorId", [0 x i32], i32, [1 x i32] }
%"core::sync::atomic::AtomicPtr<()>" = type { [0 x i64], i8*, [0 x i64] }
%"core::fmt::Arguments" = type { [0 x i64], { [0 x { [0 x i8]*, i64 }]*, i64 }, [0 x i64], { i64*, i64 }, [0 x i64], { [0 x { i8*, i8* }]*, i64 }, [0 x i64] }
%"core::task::poll::Poll<core::result::Result<usize, std::io::error::Error>>" = type { [0 x i64], i64, [2 x i64] }
%"tokio::task::core::Core<std::future::GenFuture<main::{{closure}}::{{closure}}>>" = type { [0 x i64], %"tokio::task::core::Stage<std::future::GenFuture<main::{{closure}}::{{closure}}>>", [0 x i64] }
%"tokio::task::core::Stage<std::future::GenFuture<main::{{closure}}::{{closure}}>>" = type { [0 x i64], i64, [23 x i64] }
%"core::task::wake::RawWakerVTable" = type { [0 x i64], { i8*, i64* } ({}*)*, [0 x i64], void ({}*)*, [0 x i64], void ({}*)*, [0 x i64], void ({}*)*, [0 x i64] }
%"core::result::Result<usize, std::io::error::Error>" = type { [0 x i64], i64, [2 x i64] }
%"std::io::error::Custom" = type { [0 x i64], { {}*, [3 x i64]* }, [0 x i8], i8, [7 x i8] }
%"mio::poll::ReadinessNode" = type { [0 x i64], %"mio::poll::AtomicState", [0 x i64], i64, [0 x i64], i64, [0 x i64], i64, [0 x i64], %"core::sync::atomic::AtomicPtr<mio::poll::ReadinessNode>", [0 x i64], %"core::sync::atomic::AtomicPtr<()>", [0 x i64], %"core::sync::atomic::AtomicUsize", [0 x i8], %"core::sync::atomic::AtomicBool", [7 x i8] }
%"mio::poll::AtomicState" = type { [0 x i64], %"core::sync::atomic::AtomicUsize", [0 x i64] }
%"core::sync::atomic::AtomicPtr<mio::poll::ReadinessNode>" = type { [0 x i64], i64*, [0 x i64] }
%"core::option::Option<mio::net::tcp::TcpStream>" = type { [0 x i64], i64, [2 x i64] }
%"tokio::loom::std::atomic_usize::AtomicUsize" = type { [0 x i64], %"core::cell::UnsafeCell<core::sync::atomic::AtomicUsize>", [0 x i64] }
%"core::cell::UnsafeCell<core::sync::atomic::AtomicUsize>" = type { [0 x i64], %"core::sync::atomic::AtomicUsize", [0 x i64] }
%"core::ops::generator::GeneratorState<(), core::result::Result<tokio::net::tcp::listener::TcpListener, std::io::error::Error>>" = type { [0 x i64], i64, [7 x i64] }
%"tokio::net::tcp::listener::TcpListener" = type { [0 x i64], %"tokio::io::poll_evented::PollEvented<mio::net::tcp::TcpListener>", [0 x i64] }
%"tokio::io::poll_evented::PollEvented<mio::net::tcp::TcpListener>" = type { [0 x i64], %"core::option::Option<mio::net::tcp::TcpListener>", [0 x i64], %"tokio::io::poll_evented::Inner", [0 x i64] }
%"core::option::Option<mio::net::tcp::TcpListener>" = type { [0 x i64], i64, [2 x i64] }
%"tokio::io::poll_evented::Inner" = type { [0 x i64], { i64*, i64 }, [0 x i64], %"core::sync::atomic::AtomicUsize", [0 x i64], %"core::sync::atomic::AtomicUsize", [0 x i64] }
%"std::sync::mutex::Mutex<tokio::runtime::thread_pool::queue::global::Pointers>" = type { [0 x i64], %"std::sys_common::mutex::Mutex"*, [0 x i8], %"std::sys_common::poison::Flag", [7 x i8], { i64*, i64* }, [0 x i64] }
%"core::result::Result<(tokio::net::tcp::stream::TcpStream, std::net::addr::SocketAddr), std::io::error::Error>" = type { [0 x i64], i64, [11 x i64] }
%"tokio::net::tcp::stream::TcpStream" = type { [0 x i64], %"tokio::io::poll_evented::PollEvented<mio::net::tcp::TcpStream>", [0 x i64] }
%"tokio::io::poll_evented::PollEvented<mio::net::tcp::TcpStream>" = type { [0 x i64], %"core::option::Option<mio::net::tcp::TcpStream>", [0 x i64], %"tokio::io::poll_evented::Inner", [0 x i64] }
%"tokio::runtime::context::enter::DropGuard" = type { [0 x i64], %"core::option::Option<tokio::runtime::handle::Handle>", [0 x i64] }
%"core::option::Option<tokio::runtime::handle::Handle>" = type { [0 x i64], i64, [3 x i64] }
%"tokio::runtime::handle::Handle" = type { [0 x i8], {}, [0 x i8], {}, [0 x i8], { i64, i8* }, [0 x i64], i64*, [0 x i64], i64*, [0 x i64] }
%"tokio::runtime::thread_pool::shared::Shared" = type { [0 x i64], i64*, [0 x i64], %"tokio::task::stack::TransferStack<tokio::runtime::thread_pool::shared::Shared>", [0 x i64], %"tokio::runtime::thread_pool::slice::Set"*, [0 x i64] }
%"tokio::task::stack::TransferStack<tokio::runtime::thread_pool::shared::Shared>" = type { [0 x i8], %"core::marker::PhantomData<tokio::runtime::thread_pool::shared::Shared>", [0 x i8], %"core::sync::atomic::AtomicPtr<tokio::task::core::Header>", [0 x i64] }
%"core::marker::PhantomData<tokio::runtime::thread_pool::shared::Shared>" = type {}
%"core::sync::atomic::AtomicPtr<tokio::task::core::Header>" = type { [0 x i64], i64*, [0 x i64] }
%"tokio::runtime::thread_pool::slice::Set" = type { [0 x i64], { [0 x %"tokio::runtime::thread_pool::shared::Shared"]*, i64 }, [0 x i64], { [0 x %"core::cell::UnsafeCell<tokio::util::pad::CachePadded<tokio::runtime::thread_pool::owned::Owned>>"]*, i64 }, [0 x i64], i64*, [0 x i64], %"tokio::runtime::thread_pool::idle::Idle", [0 x i64] }
%"core::cell::UnsafeCell<tokio::util::pad::CachePadded<tokio::runtime::thread_pool::owned::Owned>>" = type { [0 x i64], %"tokio::util::pad::CachePadded<tokio::runtime::thread_pool::owned::Owned>", [0 x i64] }
%"tokio::util::pad::CachePadded<tokio::runtime::thread_pool::owned::Owned>" = type { [0 x i64], %"tokio::runtime::thread_pool::owned::Owned", [9 x i64] }
%"tokio::runtime::thread_pool::owned::Owned" = type { [0 x i64], %"tokio::loom::std::atomic_usize::AtomicUsize", [0 x i64], %"tokio::runtime::thread_pool::queue::worker::Worker<tokio::runtime::thread_pool::shared::Shared>", [0 x i64], i64*, [0 x i32], { i32, i32 }, [0 x i16], i16, [0 x i8], i8, [0 x i8], i8, [0 x i8], i8, [0 x i8], i8, [2 x i8] }
%"tokio::runtime::thread_pool::queue::worker::Worker<tokio::runtime::thread_pool::shared::Shared>" = type { [0 x i64], i64*, [0 x i64], i64*, [0 x i16], i16, [3 x i16] }
%"tokio::runtime::thread_pool::idle::Idle" = type { [0 x i64], %"tokio::loom::std::atomic_usize::AtomicUsize", [0 x i64], %"std::sync::mutex::Mutex<alloc::vec::Vec<usize>>", [0 x i64], i64, [0 x i64] }
%"std::sync::mutex::Mutex<alloc::vec::Vec<usize>>" = type { [0 x i64], %"std::sys_common::mutex::Mutex"*, [0 x i8], %"std::sys_common::poison::Flag", [7 x i8], %"core::cell::UnsafeCell<alloc::vec::Vec<usize>>", [0 x i64] }
%"core::cell::UnsafeCell<alloc::vec::Vec<usize>>" = type { [0 x i64], %"alloc::vec::Vec<usize>", [0 x i64] }
%"alloc::vec::Vec<usize>" = type { [0 x i64], { i64*, i64 }, [0 x i64], i64, [0 x i64] }
%"core::result::Result<std::sync::mutex::MutexGuard<tokio::task::queue::RemoteQueue<tokio::runtime::basic_scheduler::SchedulerPriv>>, std::sys_common::poison::PoisonError<std::sync::mutex::MutexGuard<tokio::task::queue::RemoteQueue<tokio::runtime::basic_scheduler::SchedulerPriv>>>>" = type { [0 x i64], i64, [2 x i64] }
%"std::sync::mutex::Mutex<tokio::task::queue::RemoteQueue<tokio::runtime::basic_scheduler::SchedulerPriv>>" = type { [0 x i64], %"std::sys_common::mutex::Mutex"*, [0 x i8], %"std::sys_common::poison::Flag", [7 x i8], %"core::cell::UnsafeCell<tokio::task::queue::RemoteQueue<tokio::runtime::basic_scheduler::SchedulerPriv>>", [0 x i64] }
%"core::cell::UnsafeCell<tokio::task::queue::RemoteQueue<tokio::runtime::basic_scheduler::SchedulerPriv>>" = type { [0 x i64], %"tokio::task::queue::RemoteQueue<tokio::runtime::basic_scheduler::SchedulerPriv>", [0 x i64] }
%"tokio::task::queue::RemoteQueue<tokio::runtime::basic_scheduler::SchedulerPriv>" = type { [0 x i64], %"alloc::collections::vec_deque::VecDeque<tokio::task::Task<tokio::runtime::basic_scheduler::SchedulerPriv>>", [0 x i8], i8, [7 x i8] }
%"alloc::collections::vec_deque::VecDeque<tokio::task::Task<tokio::runtime::basic_scheduler::SchedulerPriv>>" = type { [0 x i64], i64, [0 x i64], i64, [0 x i64], { i64*, i64 }, [0 x i64] }
%"alloc::vec::Vec<u8>" = type { [0 x i64], { i8*, i64 }, [0 x i64], i64, [0 x i64] }
%"core::result::Result<(), tokio::task::error::JoinError>" = type { [0 x i64], i64, [4 x i64] }
%"core::panic::Location" = type { [0 x i64], { [0 x i8]*, i64 }, [0 x i32], i32, [0 x i32], i32, [0 x i32] }
%"tokio::io::util::read_line::ReadLine<tokio::io::util::buf_reader::BufReader<tokio::net::tcp::split::ReadHalf>>" = type { [0 x i64], %"tokio::io::util::buf_reader::BufReader<tokio::net::tcp::split::ReadHalf>"*, [0 x i64], %"alloc::string::String"*, [0 x i64], %"alloc::vec::Vec<u8>", [0 x i64], i64, [0 x i64] }
%"tokio::io::util::buf_reader::BufReader<tokio::net::tcp::split::ReadHalf>" = type { [0 x i64], i64*, [0 x i64], { [0 x i8]*, i64 }, [0 x i64], i64, [0 x i64], i64, [0 x i64] }
%"alloc::string::String" = type { [0 x i64], %"alloc::vec::Vec<u8>", [0 x i64] }
%"core::ops::generator::GeneratorState<(), core::result::Result<(), alloc::boxed::Box<std::error::Error>>>" = type { [0 x i64], i64, [2 x i64] }
%"tokio::sync::task::atomic_waker::AtomicWaker" = type { [0 x i64], %"tokio::loom::std::atomic_usize::AtomicUsize", [0 x i64], { i8*, i64* }, [0 x i64] }
%"tokio::net::addr::sealed::MaybeReady" = type { [0 x i32], i32, [9 x i32] }
%"tokio::task::core::Header" = type { [0 x i64], %"tokio::task::state::State", [0 x i64], i8*, [0 x i64], i64*, [0 x i64], i64*, [0 x i64], i64*, [0 x i64], %"tokio::task::raw::Vtable"*, [0 x i8], %"tokio::loom::std::causal_cell::CausalCell<()>", [0 x i8] }
%"tokio::task::state::State" = type { [0 x i64], %"tokio::loom::std::atomic_usize::AtomicUsize", [0 x i64] }
%"tokio::task::raw::Vtable" = type { [0 x i64], i1 ({}*, {}*, [3 x i64]*)*, [0 x i64], void ({}*)*, [0 x i64], void ({}*, {}*, i64)*, [0 x i64], i64 ({}*, { i8*, i64* }*)*, [0 x i64], i64 ({}*, { i8*, i64* }*, i64)*, [0 x i64], void ({}*)*, [0 x i64], void ({}*, i1)*, [0 x i64] }
%"tokio::loom::std::causal_cell::CausalCell<()>" = type { [0 x i8], %"core::cell::UnsafeCell<()>", [0 x i8] }
%"tokio::io::driver::Inner" = type { [0 x i64], %"mio::poll::Poll", [0 x i64], %"tokio::util::slab::Slab<tokio::io::driver::scheduled_io::ScheduledIo>", [0 x i64], %"tokio::loom::std::atomic_usize::AtomicUsize", [0 x i64], i64*, [0 x i64] }
%"tokio::util::slab::Slab<tokio::io::driver::scheduled_io::ScheduledIo>" = type { [0 x i64], %"tokio::util::slab::shard::Shard<tokio::io::driver::scheduled_io::ScheduledIo>", [0 x i64], %"std::sync::mutex::Mutex<()>", [0 x i64] }
%"tokio::util::slab::shard::Shard<tokio::io::driver::scheduled_io::ScheduledIo>" = type { [0 x i64], { [0 x i64]*, i64 }, [0 x i64], { [0 x %"tokio::util::slab::page::Shared<tokio::io::driver::scheduled_io::ScheduledIo>"]*, i64 }, [0 x i64] }
%"tokio::util::slab::page::Shared<tokio::io::driver::scheduled_io::ScheduledIo>" = type { [0 x i64], %"tokio::util::slab::stack::TransferStack", [0 x i64], i64, [0 x i64], i64, [0 x i64], { i64*, i64 }, [0 x i64] }
%"tokio::util::slab::stack::TransferStack" = type { [0 x i64], %"tokio::loom::std::atomic_usize::AtomicUsize", [0 x i64] }
%"std::future::GenFuture<tokio::net::tcp::listener::{{impl}}::bind::{{closure}}<&str>>" = type { [0 x i64], %"tokio::net::tcp::listener::{{impl}}::bind::{{closure}}<&str>", [0 x i64] }
%"tokio::net::tcp::listener::{{impl}}::bind::{{closure}}<&str>" = type { [0 x i64], { [0 x i8]*, i64 }, [14 x i32], i32, [1 x i32] }
%"tokio::util::slab::slot::Slot<tokio::io::driver::scheduled_io::ScheduledIo>" = type { [0 x i64], i64, [0 x i64], %"tokio::io::driver::scheduled_io::ScheduledIo", [0 x i64] }
%"tokio::io::driver::scheduled_io::ScheduledIo" = type { [0 x i64], %"tokio::loom::std::atomic_usize::AtomicUsize", [0 x i64], %"tokio::sync::task::atomic_waker::AtomicWaker", [0 x i64], %"tokio::sync::task::atomic_waker::AtomicWaker", [0 x i64] }
%"tokio::park::either::Either<tokio::io::driver::Driver, tokio::park::thread::ParkThread>" = type { [0 x i64], i64, [5 x i64] }
%"std::future::GenFuture<main::{{closure}}::{{closure}}>" = type { [0 x i64], %"main::{{closure}}::{{closure}}", [0 x i64] }
%"main::{{closure}}::{{closure}}" = type { [0 x i64], %"tokio::net::tcp::stream::TcpStream", [18 x i32], i32, [13 x i32] }
%"core::ops::generator::GeneratorState<(), core::result::Result<(tokio::net::tcp::stream::TcpStream, std::net::addr::SocketAddr), std::io::error::Error>>" = type { [0 x i64], i64, [11 x i64] }
%"core::option::Option<std::io::error::Error>" = type { [0 x i8], i8, [15 x i8] }
%"tokio::runtime::builder::Builder" = type { [0 x i64], { i64, i64 }, [0 x i64], i64, [0 x i64], %"alloc::string::String", [0 x i64], { i64, i64 }, [0 x i64], { i64*, i8* }, [0 x i64], { i64*, i8* }, [0 x i8], i8, [0 x i8], i8, [0 x i8], i8, [5 x i8] }
%"tokio::runtime::enter::Enter" = type { [0 x i8], %"core::marker::PhantomData<core::cell::RefCell<()>>", [0 x i8] }
%"core::marker::PhantomData<core::cell::RefCell<()>>" = type {}
%"tokio::runtime::thread_pool::queue::global::Queue<tokio::runtime::thread_pool::shared::Shared>" = type { [0 x i8], %"core::marker::PhantomData<tokio::runtime::thread_pool::shared::Shared>", [0 x i8], %"std::sync::mutex::Mutex<tokio::runtime::thread_pool::queue::global::Pointers>", [0 x i64], %"tokio::loom::std::atomic_usize::AtomicUsize", [0 x i64] }
%"std::future::GenFuture<main::{{closure}}>" = type { [0 x i64], %"main::{{closure}}", [0 x i64] }
%"main::{{closure}}" = type { [0 x i32], i32, [23 x i32] }
%"tokio::runtime::context::enter::{{closure}}<tokio::runtime::{{impl}}::block_on::{{closure}}<std::future::GenFuture<main::{{closure}}>>, core::result::Result<(), alloc::boxed::Box<std::error::Error>>>" = type { [0 x i64], %"tokio::runtime::handle::Handle", [0 x i64] }
%"tokio::runtime::thread_pool::queue::local::Queue<tokio::runtime::thread_pool::shared::Shared>" = type { [0 x i64], { [0 x i8*]*, i64 }, [0 x i32], %"tokio::loom::std::atomic_u32::AtomicU32", [0 x i32], %"tokio::loom::std::atomic_u32::AtomicU32", [0 x i32] }
%"tokio::loom::std::atomic_u32::AtomicU32" = type { [0 x i32], %"core::cell::UnsafeCell<core::sync::atomic::AtomicU32>", [0 x i32] }
%"core::cell::UnsafeCell<core::sync::atomic::AtomicU32>" = type { [0 x i32], %"core::sync::atomic::AtomicU32", [0 x i32] }
%"core::sync::atomic::AtomicU32" = type { [0 x i32], i32, [0 x i32] }
%"core::result::Result<tokio::net::tcp::listener::TcpListener, std::io::error::Error>" = type { [0 x i64], i64, [7 x i64] }
%"tokio::runtime::Runtime" = type { [0 x i64], %"tokio::runtime::Kind", [0 x i64], %"tokio::runtime::handle::Handle", [0 x i64], { i64*, i64* }, [0 x i64] }
%"tokio::runtime::Kind" = type { [0 x i64], i64, [8 x i64] }
%"tokio::task::queue::MpscQueues<tokio::runtime::basic_scheduler::SchedulerPriv>" = type { [0 x i64], i64*, [0 x i64], %"core::cell::UnsafeCell<alloc::collections::vec_deque::VecDeque<tokio::task::Task<tokio::runtime::basic_scheduler::SchedulerPriv>>>", [0 x i64], %"std::sync::mutex::Mutex<tokio::task::queue::RemoteQueue<tokio::runtime::basic_scheduler::SchedulerPriv>>", [0 x i64], %"tokio::task::stack::TransferStack<tokio::runtime::basic_scheduler::SchedulerPriv>", [0 x i64] }
%"core::cell::UnsafeCell<alloc::collections::vec_deque::VecDeque<tokio::task::Task<tokio::runtime::basic_scheduler::SchedulerPriv>>>" = type { [0 x i64], %"alloc::collections::vec_deque::VecDeque<tokio::task::Task<tokio::runtime::basic_scheduler::SchedulerPriv>>", [0 x i64] }
%"tokio::task::stack::TransferStack<tokio::runtime::basic_scheduler::SchedulerPriv>" = type { [0 x i8], %"core::marker::PhantomData<tokio::runtime::basic_scheduler::SchedulerPriv>", [0 x i8], %"core::sync::atomic::AtomicPtr<tokio::task::core::Header>", [0 x i64] }
%"core::marker::PhantomData<tokio::runtime::basic_scheduler::SchedulerPriv>" = type {}
%"tokio::io::driver::Driver" = type { [0 x i64], %"mio::poll::Events", [0 x i64], i64*, [0 x i64], i64*, [0 x i64] }
%"mio::poll::Events" = type { [0 x i64], %"mio::sys::unix::epoll::Events", [0 x i64] }
%"mio::sys::unix::epoll::Events" = type { [0 x i64], %"alloc::vec::Vec<libc::unix::linux_like::epoll_event>", [0 x i64] }
%"alloc::vec::Vec<libc::unix::linux_like::epoll_event>" = type { [0 x i64], { i8*, i64 }, [0 x i64], i64, [0 x i64] }
%"tokio::runtime::basic_scheduler::LocalState<tokio::park::either::Either<tokio::io::driver::Driver, tokio::park::thread::ParkThread>>" = type { [0 x i64], %"tokio::park::either::Either<tokio::io::driver::Driver, tokio::park::thread::ParkThread>", [0 x i8], i8, [7 x i8] }
%"tokio::runtime::{{impl}}::block_on::{{closure}}<std::future::GenFuture<main::{{closure}}>>" = type { [0 x i64], %"tokio::runtime::Kind"**, [0 x i64], %"std::future::GenFuture<main::{{closure}}>", [0 x i64] }
%"tokio::net::addr::sealed::OneOrMore" = type { [0 x i32], i32, [9 x i32] }
%"std::net::addr::SocketAddr" = type { [0 x i32], i32, [7 x i32] }
%"alloc::sync::ArcInner<tokio::runtime::park::Inner>" = type { [0 x i64], %"core::sync::atomic::AtomicUsize", [0 x i64], %"core::sync::atomic::AtomicUsize", [0 x i64], %"tokio::runtime::park::Inner", [0 x i64] }
%"tokio::runtime::park::Inner" = type { [0 x i64], %"tokio::loom::std::atomic_usize::AtomicUsize", [0 x i64], %"std::sync::mutex::Mutex<()>", [0 x i64], %"std::sync::condvar::Condvar", [0 x i64], i64*, [0 x i64] }
%"alloc::sync::ArcInner<tokio::runtime::blocking::pool::Inner>" = type { [0 x i64], %"core::sync::atomic::AtomicUsize", [0 x i64], %"core::sync::atomic::AtomicUsize", [0 x i64], %"tokio::runtime::blocking::pool::Inner", [0 x i64] }
%"tokio::runtime::blocking::pool::Inner" = type { [0 x i64], %"std::sync::mutex::Mutex<tokio::runtime::blocking::pool::Shared>", [0 x i64], %"std::sync::condvar::Condvar", [0 x i64], %"alloc::string::String", [0 x i64], { i64, i64 }, [0 x i64], { i64*, i8* }, [0 x i64], { i64*, i8* }, [0 x i64], i64, [0 x i64] }
%"std::sync::mutex::Mutex<tokio::runtime::blocking::pool::Shared>" = type { [0 x i64], %"std::sys_common::mutex::Mutex"*, [0 x i8], %"std::sys_common::poison::Flag", [7 x i8], %"core::cell::UnsafeCell<tokio::runtime::blocking::pool::Shared>", [0 x i64] }
%"core::cell::UnsafeCell<tokio::runtime::blocking::pool::Shared>" = type { [0 x i64], %"tokio::runtime::blocking::pool::Shared", [0 x i64] }
%"tokio::runtime::blocking::pool::Shared" = type { [0 x i64], %"alloc::collections::vec_deque::VecDeque<tokio::task::Task<tokio::runtime::blocking::schedule::NoopSchedule>>", [0 x i64], i64, [0 x i64], i64*, [0 x i32], i32, [0 x i32], i32, [0 x i8], i8, [7 x i8] }
%"alloc::collections::vec_deque::VecDeque<tokio::task::Task<tokio::runtime::blocking::schedule::NoopSchedule>>" = type { [0 x i64], i64, [0 x i64], i64, [0 x i64], { i64*, i64 }, [0 x i64] }
%"alloc::sync::ArcInner<tokio::park::thread::Inner>" = type { [0 x i64], %"core::sync::atomic::AtomicUsize", [0 x i64], %"core::sync::atomic::AtomicUsize", [0 x i64], %"tokio::park::thread::Inner", [0 x i64] }
%"tokio::park::thread::Inner" = type { [0 x i64], %"tokio::loom::std::atomic_usize::AtomicUsize", [0 x i64], %"std::sync::mutex::Mutex<()>", [0 x i64], %"std::sync::condvar::Condvar", [0 x i64] }
%"alloc::sync::ArcInner<tokio::runtime::thread_pool::queue::Cluster<tokio::runtime::thread_pool::shared::Shared>>" = type { [0 x i64], %"core::sync::atomic::AtomicUsize", [0 x i64], %"core::sync::atomic::AtomicUsize", [0 x i64], %"tokio::runtime::thread_pool::queue::Cluster<tokio::runtime::thread_pool::shared::Shared>", [0 x i64] }
%"tokio::runtime::thread_pool::queue::Cluster<tokio::runtime::thread_pool::shared::Shared>" = type { [0 x i64], { [0 x %"tokio::runtime::thread_pool::queue::local::Queue<tokio::runtime::thread_pool::shared::Shared>"]*, i64 }, [0 x i64], %"tokio::runtime::thread_pool::queue::global::Queue<tokio::runtime::thread_pool::shared::Shared>", [0 x i64] }
%"alloc::sync::ArcInner<mio::poll::ReadinessQueueInner>" = type { [0 x i64], %"core::sync::atomic::AtomicUsize", [0 x i64], %"core::sync::atomic::AtomicUsize", [0 x i64], %"mio::poll::ReadinessQueueInner", [0 x i64] }
%"mio::poll::ReadinessQueueInner" = type { [0 x i64], %"core::sync::atomic::AtomicPtr<mio::poll::ReadinessNode>", [0 x i64], i64*, [0 x i64], %"mio::poll::ReadinessNode"*, [0 x i64], %"mio::poll::ReadinessNode"*, [0 x i64], %"mio::poll::ReadinessNode"*, [0 x i32], { i32, i32 }, [0 x i32] }
%"alloc::sync::ArcInner<tokio::io::driver::Inner>" = type { [0 x i64], %"core::sync::atomic::AtomicUsize", [0 x i64], %"core::sync::atomic::AtomicUsize", [0 x i64], %"tokio::io::driver::Inner", [0 x i64] }
%"alloc::sync::ArcInner<tokio::runtime::basic_scheduler::SchedulerPriv>" = type { [0 x i64], %"core::sync::atomic::AtomicUsize", [0 x i64], %"core::sync::atomic::AtomicUsize", [0 x i64], %"tokio::runtime::basic_scheduler::SchedulerPriv", [0 x i64] }
%"tokio::runtime::basic_scheduler::SchedulerPriv" = type { [0 x i64], %"tokio::task::queue::MpscQueues<tokio::runtime::basic_scheduler::SchedulerPriv>", [0 x i64], { {}*, [3 x i64]* }, [0 x i64] }
%"alloc::sync::ArcInner<tokio::runtime::park::Shared>" = type { [0 x i64], %"core::sync::atomic::AtomicUsize", [0 x i64], %"core::sync::atomic::AtomicUsize", [0 x i64], %"tokio::runtime::park::Shared", [0 x i64] }
%"tokio::runtime::park::Shared" = type { [0 x i64], %"tokio::util::try_lock::TryLock<tokio::park::either::Either<tokio::io::driver::Driver, tokio::park::thread::ParkThread>>", [0 x i64], { i64, i8* }, [0 x i64] }
%"tokio::util::try_lock::TryLock<tokio::park::either::Either<tokio::io::driver::Driver, tokio::park::thread::ParkThread>>" = type { [0 x i64], %"core::cell::UnsafeCell<tokio::park::either::Either<tokio::io::driver::Driver, tokio::park::thread::ParkThread>>", [0 x i8], %"core::sync::atomic::AtomicBool", [7 x i8] }
%"core::cell::UnsafeCell<tokio::park::either::Either<tokio::io::driver::Driver, tokio::park::thread::ParkThread>>" = type { [0 x i64], %"tokio::park::either::Either<tokio::io::driver::Driver, tokio::park::thread::ParkThread>", [0 x i64] }
%"alloc::sync::ArcInner<tokio::runtime::thread_pool::slice::Set>" = type { [0 x i64], %"core::sync::atomic::AtomicUsize", [0 x i64], %"core::sync::atomic::AtomicUsize", [0 x i64], %"tokio::runtime::thread_pool::slice::Set", [0 x i64] }
%"alloc::sync::ArcInner<core::ops::function::Fn<(), Output=()>>" = type { [0 x i64], %"core::sync::atomic::AtomicUsize", [0 x i64], %"core::sync::atomic::AtomicUsize", [0 x i8], {} }
%"alloc::sync::ArcInner<tokio::sync::oneshot::Inner<()>>" = type { [0 x i64], %"core::sync::atomic::AtomicUsize", [0 x i64], %"core::sync::atomic::AtomicUsize", [0 x i64], %"tokio::sync::oneshot::Inner<()>", [0 x i64] }
%"tokio::sync::oneshot::Inner<()>" = type { [0 x i64], %"tokio::loom::std::atomic_usize::AtomicUsize", [0 x i64], { i8*, i8* }, [0 x i64], { i8*, i8* }, [0 x i8], i8, [7 x i8] }
%"alloc::sync::ArcInner<tokio::sync::oneshot::Sender<()>>" = type { [0 x i64], %"core::sync::atomic::AtomicUsize", [0 x i64], %"core::sync::atomic::AtomicUsize", [0 x i64], i64*, [0 x i64] }
%"tokio::loom::std::alloc::Track<core::result::Result<(), tokio::task::error::JoinError>>" = type { [0 x i64], %"core::result::Result<(), tokio::task::error::JoinError>", [0 x i64] }
%"tokio::task::error::JoinError" = type { [0 x i64], %"tokio::task::error::Repr", [0 x i64] }
%"tokio::task::error::Repr" = type { [0 x i64], {}*, [3 x i64] }
%"std::panicking::try::Data<std::panic::AssertUnwindSafe<tokio::task::harness::{{impl}}::poll::{{closure}}::{{closure}}<std::future::GenFuture<main::{{closure}}::{{closure}}>, tokio::runtime::thread_pool::shared::Shared>>, core::task::poll::Poll<()>>" = type { [2 x i64] }
%"std::panicking::try::Data<std::panic::AssertUnwindSafe<tokio::task::harness::{{impl}}::poll::{{closure}}::{{closure}}<std::future::GenFuture<main::{{closure}}::{{closure}}>, tokio::runtime::basic_scheduler::SchedulerPriv>>, core::task::poll::Poll<()>>" = type { [2 x i64] }
%"core::task::poll::Poll<core::result::Result<(), alloc::boxed::Box<std::error::Error>>>" = type { [0 x i64], i64, [2 x i64] }
%"core::task::poll::Poll<core::result::Result<(tokio::net::tcp::stream::TcpStream, std::net::addr::SocketAddr), std::io::error::Error>>" = type { [0 x i64], i64, [11 x i64] }
%"core::option::Option<std::net::addr::SocketAddr>" = type { [0 x i32], i32, [7 x i32] }
%"core::task::poll::Poll<core::result::Result<tokio::net::addr::sealed::OneOrMore, std::io::error::Error>>" = type { [0 x i64], i64, [5 x i64] }
%"core::result::Result<tokio::net::addr::sealed::OneOrMore, std::io::error::Error>" = type { [0 x i64], i64, [5 x i64] }
%"std::future::GenFuture<tokio::net::tcp::listener::{{impl}}::accept::{{closure}}>" = type { [0 x i64], %"tokio::net::tcp::listener::{{impl}}::accept::{{closure}}", [0 x i64] }
%"tokio::net::tcp::listener::{{impl}}::accept::{{closure}}" = type { [0 x i64], %"tokio::net::tcp::listener::TcpListener"*, [4 x i32], i32, [1 x i32] }
%"core::result::Result<&str, core::str::Utf8Error>" = type { [0 x i64], i64, [2 x i64] }
%"std::fs::OpenOptions" = type { [0 x i32], %"std::sys::unix::fs::OpenOptions", [0 x i32] }
%"std::sys::unix::fs::OpenOptions" = type { [0 x i32], i32, [0 x i32], i32, [0 x i8], i8, [0 x i8], i8, [0 x i8], i8, [0 x i8], i8, [0 x i8], i8, [0 x i8], i8, [2 x i8] }
%"core::result::Result<std::fs::File, std::io::error::Error>" = type { [0 x i32], i32, [5 x i32] }
%"std::path::Path" = type { [0 x i8], %"std::ffi::os_str::OsStr" }
%"std::ffi::os_str::OsStr" = type { [0 x i8], %"std::sys_common::os_str_bytes::Slice" }
%"std::sys_common::os_str_bytes::Slice" = type { [0 x i8], [0 x i8] }
%"core::result::Result<tokio::runtime::Runtime, std::io::error::Error>" = type { [0 x i64], i64, [15 x i64] }
%"tokio::park::thread::CachedParkThread" = type { [0 x i8], %"core::marker::PhantomData<alloc::rc::Rc<()>>", [0 x i8] }
%"core::marker::PhantomData<alloc::rc::Rc<()>>" = type {}
%"unwind::libunwind::_Unwind_Exception" = type { [0 x i64], i64, [0 x i64], void (i32, %"unwind::libunwind::_Unwind_Exception"*)*, [0 x i64], [6 x i64], [0 x i64] }
%"unwind::libunwind::_Unwind_Context" = type { [0 x i8] }

@anon.112aa5216417f3e30cbfa40815f3b444.0 = private unnamed_addr constant <{ [34 x i8] }> <{ [34 x i8] c"stream did not contain valid UTF-8" }>, align 1
@vtable.0 = private unnamed_addr constant { void (i8**)*, i64, i64, i32 (i8**)*, i32 (i8**)*, i32 (i8**)* } { void (i8**)* @_ZN4core3ptr18real_drop_in_place17h17dac8a9e600688dE, i64 8, i64 8, i32 (i8**)* @"_ZN3std2rt10lang_start28_$u7b$$u7b$closure$u7d$$u7d$17h0ea676343dfb611dE", i32 (i8**)* @"_ZN3std2rt10lang_start28_$u7b$$u7b$closure$u7d$$u7d$17h0ea676343dfb611dE", i32 (i8**)* @"_ZN4core3ops8function6FnOnce40call_once$u7b$$u7b$vtable.shim$u7d$$u7d$17h3e432dc8d786e559E" }, align 8
@vtable.1 = private unnamed_addr constant { void (%"std::io::error::Error"*)*, i64, i64, { [0 x i8]*, i64 } (%"std::io::error::Error"*)*, { i8*, i8* } (%"std::io::error::Error"*)*, { i8*, i8* } (%"std::io::error::Error"*)*, i64 (%"std::io::error::Error"*)*, i64* (%"std::io::error::Error"*)*, i1 (%"std::io::error::Error"*, %"core::fmt::Formatter"*)*, i1 (%"std::io::error::Error"*, %"core::fmt::Formatter"*)* } { void (%"std::io::error::Error"*)* @_ZN4core3ptr18real_drop_in_place17h664ae0e66d8bb2d1E, i64 16, i64 8, { [0 x i8]*, i64 } (%"std::io::error::Error"*)* @"_ZN59_$LT$std..io..error..Error$u20$as$u20$std..error..Error$GT$11description17he40877cea95c4584E", { i8*, i8* } (%"std::io::error::Error"*)* @"_ZN59_$LT$std..io..error..Error$u20$as$u20$std..error..Error$GT$5cause17hddd36968f8f5a547E", { i8*, i8* } (%"std::io::error::Error"*)* @"_ZN59_$LT$std..io..error..Error$u20$as$u20$std..error..Error$GT$6source17he73be4a4d7732f87E", i64 (%"std::io::error::Error"*)* @_ZN3std5error5Error7type_id17h59d9d71ba629941fE, i64* (%"std::io::error::Error"*)* @_ZN3std5error5Error9backtrace17he692434e154190d0E, i1 (%"std::io::error::Error"*, %"core::fmt::Formatter"*)* @"_ZN60_$LT$std..io..error..Error$u20$as$u20$core..fmt..Display$GT$3fmt17ha002db5de735283eE", i1 (%"std::io::error::Error"*, %"core::fmt::Formatter"*)* @"_ZN58_$LT$std..io..error..Error$u20$as$u20$core..fmt..Debug$GT$3fmt17h80d51771597be04eE" }, align 8
@anon.112aa5216417f3e30cbfa40815f3b444.1 = private unnamed_addr constant <{ [100 x i8] }> <{ [100 x i8] c"TLS Context not set. This is a rustc bug. Please file an issue on https://github.com/rust-lang/rust." }>, align 1
@anon.112aa5216417f3e30cbfa40815f3b444.2 = private unnamed_addr constant <{ [70 x i8] }> <{ [70 x i8] c"cannot access a Thread Local Storage value during or after destruction" }>, align 1
@vtable.2 = private unnamed_addr constant { void ({ i8*, i64 }*)*, i64, i64, { {}*, [3 x i64]* } ({ i8*, i64 }*)*, { {}*, [3 x i64]* } ({ i8*, i64 }*)* } { void ({ i8*, i64 }*)* bitcast (void ({ [0 x i8]*, i64 }*)* @_ZN4core3ptr18real_drop_in_place17h2c3b0f290c9aa1b2E to void ({ i8*, i64 }*)*), i64 16, i64 8, { {}*, [3 x i64]* } ({ i8*, i64 }*)* @"_ZN91_$LT$std..panicking..begin_panic..PanicPayload$LT$A$GT$$u20$as$u20$core..panic..BoxMeUp$GT$8take_box17hac6307d4e5f1ec34E", { {}*, [3 x i64]* } ({ i8*, i64 }*)* @"_ZN91_$LT$std..panicking..begin_panic..PanicPayload$LT$A$GT$$u20$as$u20$core..panic..BoxMeUp$GT$3get17ha5c708c3e23a8ee2E" }, align 8
@anon.112aa5216417f3e30cbfa40815f3b444.3 = private unnamed_addr constant <{ [2 x i8] }> <{ [2 x i8] c"()" }>, align 1
@anon.112aa5216417f3e30cbfa40815f3b444.4 = private unnamed_addr constant <{ [16 x i8] }> <{ [16 x i8] c"already borrowed" }>, align 1
@anon.112aa5216417f3e30cbfa40815f3b444.5 = private unnamed_addr constant <{ [73 x i8] }> <{ [73 x i8] c"/rustc/5e1a799842ba6ed4a57e91f7ab9435947482f7d8/src/libcore/macros/mod.rs" }>, align 1
@anon.112aa5216417f3e30cbfa40815f3b444.6 = private unnamed_addr constant <{ i8*, [16 x i8] }> <{ i8* getelementptr inbounds (<{ [73 x i8] }>, <{ [73 x i8] }>* @anon.112aa5216417f3e30cbfa40815f3b444.5, i32 0, i32 0, i32 0), [16 x i8] c"I\00\00\00\00\00\00\00\0F\00\00\00(\00\00\00" }>, align 8
@anon.112aa5216417f3e30cbfa40815f3b444.7 = private unnamed_addr constant <{ [28 x i8] }> <{ [28 x i8] c"assertion failed: mid <= len" }>, align 1
@anon.112aa5216417f3e30cbfa40815f3b444.8 = private unnamed_addr constant <{ [43 x i8] }> <{ [43 x i8] c"called `Option::unwrap()` on a `None` value" }>, align 1
@vtable.3 = private unnamed_addr constant { void (%"std::thread::local::AccessError"*)*, i64, i64, i1 (%"std::thread::local::AccessError"*, %"core::fmt::Formatter"*)* } { void (%"std::thread::local::AccessError"*)* @_ZN4core3ptr18real_drop_in_place17h801f84abd31e57b7E, i64 0, i64 1, i1 (%"std::thread::local::AccessError"*, %"core::fmt::Formatter"*)* @"_ZN68_$LT$std..thread..local..AccessError$u20$as$u20$core..fmt..Debug$GT$3fmt17he87ee9ea4512019bE" }, align 8
@vtable.4 = private unnamed_addr constant { void (%"std::io::error::Error"*)*, i64, i64, i1 (%"std::io::error::Error"*, %"core::fmt::Formatter"*)* } { void (%"std::io::error::Error"*)* @_ZN4core3ptr18real_drop_in_place17h664ae0e66d8bb2d1E, i64 16, i64 8, i1 (%"std::io::error::Error"*, %"core::fmt::Formatter"*)* @"_ZN58_$LT$std..io..error..Error$u20$as$u20$core..fmt..Debug$GT$3fmt17h80d51771597be04eE" }, align 8
@vtable.5 = private unnamed_addr constant { void (%"core::cell::BorrowMutError"*)*, i64, i64, i1 (%"core::cell::BorrowMutError"*, %"core::fmt::Formatter"*)* } { void (%"core::cell::BorrowMutError"*)* bitcast (void (%"std::thread::local::AccessError"*)* @_ZN4core3ptr18real_drop_in_place17h801f84abd31e57b7E to void (%"core::cell::BorrowMutError"*)*), i64 0, i64 1, i1 (%"core::cell::BorrowMutError"*, %"core::fmt::Formatter"*)* @"_ZN63_$LT$core..cell..BorrowMutError$u20$as$u20$core..fmt..Debug$GT$3fmt17he84d908d86d62dc0E" }, align 8
@vtable.6 = private unnamed_addr constant { void ({}*)*, i64, i64, i1 ({}*, %"core::fmt::Formatter"*)* } { void ({}*)* bitcast (void (%"std::thread::local::AccessError"*)* @_ZN4core3ptr18real_drop_in_place17h801f84abd31e57b7E to void ({}*)*), i64 0, i64 1, i1 ({}*, %"core::fmt::Formatter"*)* @"_ZN45_$LT$$LP$$RP$$u20$as$u20$core..fmt..Debug$GT$3fmt17he0b7e4faabc5658fE" }, align 8
@anon.112aa5216417f3e30cbfa40815f3b444.9 = private unnamed_addr constant <{ [43 x i8] }> <{ [43 x i8] c"called `Result::unwrap()` on an `Err` value" }>, align 1
@vtable.7 = private unnamed_addr constant { void ({ i64*, i8 }*)*, i64, i64, i1 ({ i64*, i8 }*, %"core::fmt::Formatter"*)* } { void ({ i64*, i8 }*)* @_ZN4core3ptr18real_drop_in_place17h66967e7ef667e5e9E, i64 16, i64 8, i1 ({ i64*, i8 }*, %"core::fmt::Formatter"*)* @"_ZN82_$LT$std..sys_common..poison..PoisonError$LT$T$GT$$u20$as$u20$core..fmt..Debug$GT$3fmt17hf9cbaa475d0c625bE" }, align 8
@vtable.8 = private unnamed_addr constant { void (%"tokio::park::either::Either<std::io::error::Error, ()>"*)*, i64, i64, i1 (%"tokio::park::either::Either<std::io::error::Error, ()>"*, %"core::fmt::Formatter"*)* } { void (%"tokio::park::either::Either<std::io::error::Error, ()>"*)* @_ZN4core3ptr18real_drop_in_place17hb375d059e9ff58beE, i64 16, i64 8, i1 (%"tokio::park::either::Either<std::io::error::Error, ()>"*, %"core::fmt::Formatter"*)* @"_ZN77_$LT$tokio..park..either..Either$LT$A$C$B$GT$$u20$as$u20$core..fmt..Debug$GT$3fmt17h512c0ff93e9d314dE" }, align 8
@vtable.9 = private unnamed_addr constant { void (%"core::alloc::LayoutErr"*)*, i64, i64, i1 (%"core::alloc::LayoutErr"*, %"core::fmt::Formatter"*)* } { void (%"core::alloc::LayoutErr"*)* bitcast (void (%"std::thread::local::AccessError"*)* @_ZN4core3ptr18real_drop_in_place17h801f84abd31e57b7E to void (%"core::alloc::LayoutErr"*)*), i64 0, i64 1, i1 (%"core::alloc::LayoutErr"*, %"core::fmt::Formatter"*)* @"_ZN59_$LT$core..alloc..LayoutErr$u20$as$u20$core..fmt..Debug$GT$3fmt17h851cba66435ade30E" }, align 8
@anon.112aa5216417f3e30cbfa40815f3b444.10 = private unnamed_addr constant <{ [36 x i8] }> <{ [36 x i8] c"Tried to shrink to a larger capacity" }>, align 1
@anon.112aa5216417f3e30cbfa40815f3b444.11 = private unnamed_addr constant <{ [30 x i8] }> <{ [30 x i8] c"<::core::macros::panic macros>" }>, align 1
@anon.112aa5216417f3e30cbfa40815f3b444.12 = private unnamed_addr constant <{ i8*, [16 x i8] }> <{ i8* getelementptr inbounds (<{ [30 x i8] }>, <{ [30 x i8] }>* @anon.112aa5216417f3e30cbfa40815f3b444.11, i32 0, i32 0, i32 0), [16 x i8] c"\1E\00\00\00\00\00\00\00\03\00\00\00\0A\00\00\00" }>, align 8
@vtable.a = private unnamed_addr constant { void (%"mio::net::tcp::TcpListener"*)*, i64, i64, void (%"core::result::Result<(), std::io::error::Error>"*, %"mio::net::tcp::TcpListener"*, %"mio::poll::Poll"*, i64, i64, i64)*, void (%"core::result::Result<(), std::io::error::Error>"*, %"mio::net::tcp::TcpListener"*, %"mio::poll::Poll"*, i64, i64, i64)*, void (%"core::result::Result<(), std::io::error::Error>"*, %"mio::net::tcp::TcpListener"*, %"mio::poll::Poll"*)* } { void (%"mio::net::tcp::TcpListener"*)* bitcast (void (%"mio::net::tcp::TcpStream"*)* @_ZN4core3ptr18real_drop_in_place17h1dfbf6d2047bdac8E to void (%"mio::net::tcp::TcpListener"*)*), i64 16, i64 8, void (%"core::result::Result<(), std::io::error::Error>"*, %"mio::net::tcp::TcpListener"*, %"mio::poll::Poll"*, i64, i64, i64)* @"_ZN70_$LT$mio..net..tcp..TcpListener$u20$as$u20$mio..event_imp..Evented$GT$8register17ha2cf03b5311a5922E", void (%"core::result::Result<(), std::io::error::Error>"*, %"mio::net::tcp::TcpListener"*, %"mio::poll::Poll"*, i64, i64, i64)* @"_ZN70_$LT$mio..net..tcp..TcpListener$u20$as$u20$mio..event_imp..Evented$GT$10reregister17hd7ea0235cc2154fcE", void (%"core::result::Result<(), std::io::error::Error>"*, %"mio::net::tcp::TcpListener"*, %"mio::poll::Poll"*)* @"_ZN70_$LT$mio..net..tcp..TcpListener$u20$as$u20$mio..event_imp..Evented$GT$10deregister17h82b2ff00732d37f0E" }, align 8
@anon.112aa5216417f3e30cbfa40815f3b444.13 = private unnamed_addr constant <{ [12 x i8] }> <{ [12 x i8] c"reactor gone" }>, align 1
@vtable.b = private unnamed_addr constant { void (%"mio::net::tcp::TcpStream"*)*, i64, i64, void (%"core::result::Result<(), std::io::error::Error>"*, %"mio::net::tcp::TcpStream"*, %"mio::poll::Poll"*, i64, i64, i64)*, void (%"core::result::Result<(), std::io::error::Error>"*, %"mio::net::tcp::TcpStream"*, %"mio::poll::Poll"*, i64, i64, i64)*, void (%"core::result::Result<(), std::io::error::Error>"*, %"mio::net::tcp::TcpStream"*, %"mio::poll::Poll"*)* } { void (%"mio::net::tcp::TcpStream"*)* @_ZN4core3ptr18real_drop_in_place17h1dfbf6d2047bdac8E, i64 16, i64 8, void (%"core::result::Result<(), std::io::error::Error>"*, %"mio::net::tcp::TcpStream"*, %"mio::poll::Poll"*, i64, i64, i64)* @"_ZN68_$LT$mio..net..tcp..TcpStream$u20$as$u20$mio..event_imp..Evented$GT$8register17hc808485d1d0dc7dbE", void (%"core::result::Result<(), std::io::error::Error>"*, %"mio::net::tcp::TcpStream"*, %"mio::poll::Poll"*, i64, i64, i64)* @"_ZN68_$LT$mio..net..tcp..TcpStream$u20$as$u20$mio..event_imp..Evented$GT$10reregister17h0f516ae1b10b3c84E", void (%"core::result::Result<(), std::io::error::Error>"*, %"mio::net::tcp::TcpStream"*, %"mio::poll::Poll"*)* @"_ZN68_$LT$mio..net..tcp..TcpStream$u20$as$u20$mio..event_imp..Evented$GT$10deregister17hbae7c9b5ade424e3E" }, align 8
@anon.112aa5216417f3e30cbfa40815f3b444.14 = private unnamed_addr constant <{ [103 x i8] }> <{ [103 x i8] c"/home/addisoncrump/.cargo/registry/src/github.com-1ecc6299db9ec823/tokio-0.2.13/src/net/tcp/listener.rs" }>, align 1
@anon.112aa5216417f3e30cbfa40815f3b444.15 = private unnamed_addr constant <{ i8*, [16 x i8] }> <{ i8* getelementptr inbounds (<{ [103 x i8] }>, <{ [103 x i8] }>* @anon.112aa5216417f3e30cbfa40815f3b444.14, i32 0, i32 0, i32 0), [16 x i8] c"g\00\00\00\00\00\00\00k\00\00\00M\00\00\00" }>, align 8
@str.c = internal constant [34 x i8] c"`async fn` resumed after panicking"
@str.d = internal constant [35 x i8] c"`async fn` resumed after completion"
@anon.112aa5216417f3e30cbfa40815f3b444.16 = private unnamed_addr constant <{ [32 x i8] }> <{ [32 x i8] c"could not resolve to any address" }>, align 1
@anon.112aa5216417f3e30cbfa40815f3b444.17 = private unnamed_addr constant <{ i8*, [16 x i8] }> <{ i8* getelementptr inbounds (<{ [103 x i8] }>, <{ [103 x i8] }>* @anon.112aa5216417f3e30cbfa40815f3b444.14, i32 0, i32 0, i32 0), [16 x i8] c"g\00\00\00\00\00\00\00\9F\00\00\00K\00\00\00" }>, align 8
@vtable.e = private unnamed_addr constant { void (i64**)*, i64, i64, i8* (i64**)*, i8* (i64**)* } { void (i64**)* bitcast (void (i8**)* @_ZN4core3ptr18real_drop_in_place17h17dac8a9e600688dE to void (i64**)*), i64 8, i64 8, i8* (i64**)* @"_ZN5tokio4task13Task$LT$S$GT$3run28_$u7b$$u7b$closure$u7d$$u7d$17h77a11ed1fa830a5cE", i8* (i64**)* @"_ZN4core3ops8function6FnOnce40call_once$u7b$$u7b$vtable.shim$u7d$$u7d$17h55201cde9aab2698E" }, align 8
@anon.112aa5216417f3e30cbfa40815f3b444.18 = private unnamed_addr constant <{ i8*, i8*, i8*, i8*, i8*, i8*, i8*, [0 x i8] }> <{ i8* bitcast (i1 ({}*, {}*, [3 x i64]*)* @_ZN5tokio4task3raw4poll17h8ae230134c718f4fE to i8*), i8* bitcast (void ({}*)* @_ZN5tokio4task3raw9drop_task17h422ee28bbd3f3a28E to i8*), i8* bitcast (void ({}*, {}*, i64)* @_ZN5tokio4task3raw11read_output17h71d9a739bc9e2fb8E to i8*), i8* bitcast (i64 ({}*, { i8*, i64* }*)* @_ZN5tokio4task3raw16store_join_waker17h1bbe26763ba3ece0E to i8*), i8* bitcast (i64 ({}*, { i8*, i64* }*, i64)* @_ZN5tokio4task3raw15swap_join_waker17h7a617f21a6f3a220E to i8*), i8* bitcast (void ({}*)* @_ZN5tokio4task3raw21drop_join_handle_slow17h9c3478b8a780d847E to i8*), i8* bitcast (void ({}*, i1)* @_ZN5tokio4task3raw6cancel17h440673ff578b8afaE to i8*), [0 x i8] zeroinitializer }>, align 8
@anon.112aa5216417f3e30cbfa40815f3b444.19 = private unnamed_addr constant <{ i8*, i8*, i8*, i8*, i8*, i8*, i8*, [0 x i8] }> <{ i8* bitcast (i1 ({}*, {}*, [3 x i64]*)* @_ZN5tokio4task3raw4poll17h03fbca31b17747c9E to i8*), i8* bitcast (void ({}*)* @_ZN5tokio4task3raw9drop_task17h422ee28bbd3f3a28E to i8*), i8* bitcast (void ({}*, {}*, i64)* @_ZN5tokio4task3raw11read_output17h71d9a739bc9e2fb8E to i8*), i8* bitcast (i64 ({}*, { i8*, i64* }*)* @_ZN5tokio4task3raw16store_join_waker17h1bbe26763ba3ece0E to i8*), i8* bitcast (i64 ({}*, { i8*, i64* }*, i64)* @_ZN5tokio4task3raw15swap_join_waker17h7a617f21a6f3a220E to i8*), i8* bitcast (void ({}*)* @_ZN5tokio4task3raw21drop_join_handle_slow17h9c3478b8a780d847E to i8*), i8* bitcast (void ({}*, i1)* @_ZN5tokio4task3raw6cancel17h1c94218425a95fb3E to i8*), [0 x i8] zeroinitializer }>, align 8
@anon.112aa5216417f3e30cbfa40815f3b444.20 = private unnamed_addr constant <{ [42 x i8] }> <{ [42 x i8] c"internal error: entered unreachable code: " }>, align 1
@anon.112aa5216417f3e30cbfa40815f3b444.21 = private unnamed_addr constant <{ i8*, [8 x i8] }> <{ i8* getelementptr inbounds (<{ [42 x i8] }>, <{ [42 x i8] }>* @anon.112aa5216417f3e30cbfa40815f3b444.20, i32 0, i32 0, i32 0), [8 x i8] c"*\00\00\00\00\00\00\00" }>, align 8
@anon.112aa5216417f3e30cbfa40815f3b444.22 = private unnamed_addr constant <{ [16 x i8] }> <{ [16 x i8] c"unexpected state" }>, align 1
@anon.112aa5216417f3e30cbfa40815f3b444.23 = private unnamed_addr constant <{ i8*, [8 x i8] }> <{ i8* getelementptr inbounds (<{ [16 x i8] }>, <{ [16 x i8] }>* @anon.112aa5216417f3e30cbfa40815f3b444.22, i32 0, i32 0, i32 0), [8 x i8] c"\10\00\00\00\00\00\00\00" }>, align 8
@anon.112aa5216417f3e30cbfa40815f3b444.24 = private unnamed_addr constant <{ [96 x i8] }> <{ [96 x i8] c"/home/addisoncrump/.cargo/registry/src/github.com-1ecc6299db9ec823/tokio-0.2.13/src/task/core.rs" }>, align 1
@anon.112aa5216417f3e30cbfa40815f3b444.25 = private unnamed_addr constant <{ i8*, [16 x i8] }> <{ i8* getelementptr inbounds (<{ [96 x i8] }>, <{ [96 x i8] }>* @anon.112aa5216417f3e30cbfa40815f3b444.24, i32 0, i32 0, i32 0), [16 x i8] c"`\00\00\00\00\00\00\00\93\00\00\00\12\00\00\00" }>, align 8
@anon.112aa5216417f3e30cbfa40815f3b444.26 = private unnamed_addr constant <{ [16 x i8] }> <{ [16 x i8] c"unexpected stage" }>, align 1
@anon.112aa5216417f3e30cbfa40815f3b444.27 = private unnamed_addr constant <{ i8*, [8 x i8] }> <{ i8* getelementptr inbounds (<{ [16 x i8] }>, <{ [16 x i8] }>* @anon.112aa5216417f3e30cbfa40815f3b444.26, i32 0, i32 0, i32 0), [8 x i8] c"\10\00\00\00\00\00\00\00" }>, align 8
@anon.112aa5216417f3e30cbfa40815f3b444.28 = private unnamed_addr constant <{ i8*, [16 x i8] }> <{ i8* getelementptr inbounds (<{ [96 x i8] }>, <{ [96 x i8] }>* @anon.112aa5216417f3e30cbfa40815f3b444.24, i32 0, i32 0, i32 0), [16 x i8] c"`\00\00\00\00\00\00\00t\00\00\00\16\00\00\00" }>, align 8
@anon.112aa5216417f3e30cbfa40815f3b444.29 = private unnamed_addr constant <{ [97 x i8] }> <{ [97 x i8] c"/home/addisoncrump/.cargo/registry/src/github.com-1ecc6299db9ec823/tokio-0.2.13/src/task/queue.rs" }>, align 1
@anon.112aa5216417f3e30cbfa40815f3b444.30 = private unnamed_addr constant <{ i8*, [16 x i8] }> <{ i8* getelementptr inbounds (<{ [97 x i8] }>, <{ [97 x i8] }>* @anon.112aa5216417f3e30cbfa40815f3b444.29, i32 0, i32 0, i32 0), [16 x i8] c"a\00\00\00\00\00\00\00\0F\01\00\00\1B\00\00\00" }>, align 8
@anon.112aa5216417f3e30cbfa40815f3b444.31 = private unnamed_addr constant <{ [14 x i8] }> <{ [14 x i8] c"mutex poisoned" }>, align 1
@anon.112aa5216417f3e30cbfa40815f3b444.32 = private unnamed_addr constant <{ i8*, [16 x i8] }> <{ i8* getelementptr inbounds (<{ [97 x i8] }>, <{ [97 x i8] }>* @anon.112aa5216417f3e30cbfa40815f3b444.29, i32 0, i32 0, i32 0), [16 x i8] c"a\00\00\00\00\00\00\00\AA\00\00\00\17\00\00\00" }>, align 8
@anon.112aa5216417f3e30cbfa40815f3b444.33 = private unnamed_addr constant <{ [113 x i8] }> <{ [113 x i8] c"must be called from the context of Tokio runtime configured with either `basic_scheduler` or `threaded_scheduler`" }>, align 1
@anon.112aa5216417f3e30cbfa40815f3b444.34 = private unnamed_addr constant <{ i8*, i8*, i8*, i8*, [0 x i8] }> <{ i8* bitcast ({ i8*, i64* } ({}*)* @_ZN5tokio4task5waker11clone_waker17haa21f8752533c19fE to i8*), i8* bitcast (void ({}*)* @_ZN5tokio4task5waker11wake_by_val17h41615f92ed329f52E to i8*), i8* bitcast (void ({}*)* @_ZN5tokio4task5waker11wake_by_ref17h978abe5b8a260ec3E to i8*), i8* bitcast (void ({}*)* @_ZN5tokio4task5waker10drop_waker17h18c726c8746677b4E to i8*), [0 x i8] zeroinitializer }>, align 8
@anon.112aa5216417f3e30cbfa40815f3b444.35 = private unnamed_addr constant <{ i8*, i8*, i8*, i8*, [0 x i8] }> <{ i8* bitcast ({ i8*, i64* } ({}*)* @_ZN5tokio4task5waker11clone_waker17h801246328d671f18E to i8*), i8* bitcast (void ({}*)* @_ZN5tokio4task5waker11wake_by_val17hec852c706a13295aE to i8*), i8* bitcast (void ({}*)* @_ZN5tokio4task5waker11wake_by_ref17h66cc40f6f15cdd3cE to i8*), i8* bitcast (void ({}*)* @_ZN5tokio4task5waker10drop_waker17h18c726c8746677b4E to i8*), [0 x i8] zeroinitializer }>, align 8
@anon.112aa5216417f3e30cbfa40815f3b444.36 = private unnamed_addr constant <{ [99 x i8] }> <{ [99 x i8] c"/home/addisoncrump/.cargo/registry/src/github.com-1ecc6299db9ec823/tokio-0.2.13/src/task/harness.rs" }>, align 1
@anon.112aa5216417f3e30cbfa40815f3b444.37 = private unnamed_addr constant <{ i8*, [16 x i8] }> <{ i8* getelementptr inbounds (<{ [99 x i8] }>, <{ [99 x i8] }>* @anon.112aa5216417f3e30cbfa40815f3b444.36, i32 0, i32 0, i32 0), [16 x i8] c"c\00\00\00\00\00\00\004\01\00\00\1D\00\00\00" }>, align 8
@anon.112aa5216417f3e30cbfa40815f3b444.38 = private unnamed_addr constant <{ [22 x i8] }> <{ [22 x i8] c"executor should be set" }>, align 1
@anon.112aa5216417f3e30cbfa40815f3b444.39 = private unnamed_addr constant <{ [39 x i8] }> <{ [39 x i8] c"first poll must happen from an executor" }>, align 1
@anon.112aa5216417f3e30cbfa40815f3b444.40 = private unnamed_addr constant <{ i8*, [16 x i8] }> <{ i8* getelementptr inbounds (<{ [99 x i8] }>, <{ [99 x i8] }>* @anon.112aa5216417f3e30cbfa40815f3b444.36, i32 0, i32 0, i32 0), [16 x i8] c"c\00\00\00\00\00\00\00\AE\01\00\00\0D\00\00\00" }>, align 8
@anon.112aa5216417f3e30cbfa40815f3b444.41 = private unnamed_addr constant <{ [37 x i8] }> <{ [37 x i8] c"assertion failed: !res.is_final_ref()" }>, align 1
@anon.112aa5216417f3e30cbfa40815f3b444.42 = private unnamed_addr constant <{ i8*, [16 x i8] }> <{ i8* getelementptr inbounds (<{ [99 x i8] }>, <{ [99 x i8] }>* @anon.112aa5216417f3e30cbfa40815f3b444.36, i32 0, i32 0, i32 0), [16 x i8] c"c\00\00\00\00\00\00\00\BD\01\00\00\1D\00\00\00" }>, align 8
@anon.112aa5216417f3e30cbfa40815f3b444.43 = private unnamed_addr constant <{ i8*, [16 x i8] }> <{ i8* getelementptr inbounds (<{ [99 x i8] }>, <{ [99 x i8] }>* @anon.112aa5216417f3e30cbfa40815f3b444.36, i32 0, i32 0, i32 0), [16 x i8] c"c\00\00\00\00\00\00\00y\01\00\00\09\00\00\00" }>, align 8
@anon.112aa5216417f3e30cbfa40815f3b444.44 = private unnamed_addr constant <{ [8 x i8] }> <{ [8 x i8] c"state = " }>, align 1
@anon.112aa5216417f3e30cbfa40815f3b444.45 = private unnamed_addr constant <{ i8*, [8 x i8] }> <{ i8* getelementptr inbounds (<{ [8 x i8] }>, <{ [8 x i8] }>* @anon.112aa5216417f3e30cbfa40815f3b444.44, i32 0, i32 0, i32 0), [8 x i8] c"\08\00\00\00\00\00\00\00" }>, align 8
@anon.112aa5216417f3e30cbfa40815f3b444.46 = private unnamed_addr constant <{ i8*, [16 x i8] }> <{ i8* getelementptr inbounds (<{ [99 x i8] }>, <{ [99 x i8] }>* @anon.112aa5216417f3e30cbfa40815f3b444.36, i32 0, i32 0, i32 0), [16 x i8] c"c\00\00\00\00\00\00\00\A3\00\00\00\09\00\00\00" }>, align 8
@anon.112aa5216417f3e30cbfa40815f3b444.47 = private unnamed_addr constant <{ [13 x i8] }> <{ [13 x i8] c"waker missing" }>, align 1
@anon.112aa5216417f3e30cbfa40815f3b444.48 = private unnamed_addr constant <{ [21 x i8] }> <{ [21 x i8] c"failed to park thread" }>, align 1
@anon.112aa5216417f3e30cbfa40815f3b444.49 = private unnamed_addr constant <{ [118 x i8] }> <{ [118 x i8] c"/home/addisoncrump/.cargo/registry/src/github.com-1ecc6299db9ec823/tokio-0.2.13/src/runtime/thread_pool/queue/local.rs" }>, align 1
@anon.112aa5216417f3e30cbfa40815f3b444.50 = private unnamed_addr constant <{ i8*, [16 x i8] }> <{ i8* getelementptr inbounds (<{ [118 x i8] }>, <{ [118 x i8] }>* @anon.112aa5216417f3e30cbfa40815f3b444.49, i32 0, i32 0, i32 0), [16 x i8] c"v\00\00\00\00\00\00\00\A9\00\00\00\18\00\00\00" }>, align 8
@anon.112aa5216417f3e30cbfa40815f3b444.51 = private unnamed_addr constant <{ [14 x i8] }> <{ [14 x i8] c"failed to park" }>, align 1
@anon.112aa5216417f3e30cbfa40815f3b444.52 = private unnamed_addr constant <{ i8*, i8*, i8*, i8*, [0 x i8] }> <{ i8* bitcast ({ i8*, i64* } ({}*)* @_ZN5tokio7runtime15basic_scheduler17sched_clone_waker17ha3df2b658df03654E to i8*), i8* bitcast (void ({}*)* @_ZN5tokio7runtime15basic_scheduler10sched_noop17h3663dcd2af1f450dE to i8*), i8* bitcast (void ({}*)* @_ZN5tokio7runtime15basic_scheduler17sched_wake_by_ref17h0f227d041b496857E to i8*), i8* bitcast (void ({}*)* @_ZN5tokio7runtime15basic_scheduler10sched_noop17h3663dcd2af1f450dE to i8*), [0 x i8] zeroinitializer }>, align 8
@anon.112aa5216417f3e30cbfa40815f3b444.53 = private unnamed_addr constant <{ [102 x i8] }> <{ [102 x i8] c"/home/addisoncrump/.cargo/registry/src/github.com-1ecc6299db9ec823/tokio-0.2.13/src/runtime/spawner.rs" }>, align 1
@anon.112aa5216417f3e30cbfa40815f3b444.54 = private unnamed_addr constant <{ i8*, [16 x i8] }> <{ i8* getelementptr inbounds (<{ [102 x i8] }>, <{ [102 x i8] }>* @anon.112aa5216417f3e30cbfa40815f3b444.53, i32 0, i32 0, i32 0), [16 x i8] c"f\00\00\00\00\00\00\00\1D\00\00\00#\00\00\00" }>, align 8
@anon.112aa5216417f3e30cbfa40815f3b444.55 = private unnamed_addr constant <{ [32 x i8] }> <{ [32 x i8] c"spawning not enabled for runtime" }>, align 1
@_ZN6memchr3x866memchr2FN17h86b9bdb70818f9f5E = external local_unnamed_addr global %"core::sync::atomic::AtomicPtr<()>"
@anon.112aa5216417f3e30cbfa40815f3b444.56 = private unnamed_addr constant <{ [25 x i8] }> <{ [25 x i8] c"PoisonError { inner: .. }" }>, align 1
@anon.112aa5216417f3e30cbfa40815f3b444.57 = private unnamed_addr constant <{ [7 x i8] }> <{ [7 x i8] c"Error: " }>, align 1
@anon.112aa5216417f3e30cbfa40815f3b444.58 = private unnamed_addr constant <{ [1 x i8] }> <{ [1 x i8] c"\0A" }>, align 1
@anon.112aa5216417f3e30cbfa40815f3b444.59 = private unnamed_addr constant <{ i8*, [8 x i8], i8*, [8 x i8] }> <{ i8* getelementptr inbounds (<{ [7 x i8] }>, <{ [7 x i8] }>* @anon.112aa5216417f3e30cbfa40815f3b444.57, i32 0, i32 0, i32 0), [8 x i8] c"\07\00\00\00\00\00\00\00", i8* getelementptr inbounds (<{ [1 x i8] }>, <{ [1 x i8] }>* @anon.112aa5216417f3e30cbfa40815f3b444.58, i32 0, i32 0, i32 0), [8 x i8] c"\01\00\00\00\00\00\00\00" }>, align 8
@vtable.f = private unnamed_addr constant { void ({ [0 x i8]*, i64 }*)*, i64, i64, i64 ({ [0 x i8]*, i64 }*)* } { void ({ [0 x i8]*, i64 }*)* @_ZN4core3ptr18real_drop_in_place17h2c3b0f290c9aa1b2E, i64 16, i64 8, i64 ({ [0 x i8]*, i64 }*)* @"_ZN36_$LT$T$u20$as$u20$core..any..Any$GT$7type_id17h3e94f3669ad6df0bE" }, align 8
@anon.112aa5216417f3e30cbfa40815f3b444.60 = private unnamed_addr constant <{ [11 x i8] }> <{ [11 x i8] c"park failed" }>, align 1
@anon.112aa5216417f3e30cbfa40815f3b444.61 = private unnamed_addr constant <{ [30 x i8] }> <{ [30 x i8] c"lmaoniceonebuddypalfriendolino" }>, align 1
@anon.112aa5216417f3e30cbfa40815f3b444.62 = private unnamed_addr constant <{ [11 x i8] }> <{ [11 x i8] c"src/main.rs" }>, align 1
@anon.112aa5216417f3e30cbfa40815f3b444.63 = private unnamed_addr constant <{ i8*, [16 x i8] }> <{ i8* getelementptr inbounds (<{ [11 x i8] }>, <{ [11 x i8] }>* @anon.112aa5216417f3e30cbfa40815f3b444.62, i32 0, i32 0, i32 0), [16 x i8] c"\0B\00\00\00\00\00\00\00\18\00\00\00!\00\00\00" }>, align 8
@anon.112aa5216417f3e30cbfa40815f3b444.64 = private unnamed_addr constant <{ [10 x i8] }> <{ [10 x i8] c"Password: " }>, align 1
@anon.112aa5216417f3e30cbfa40815f3b444.65 = private unnamed_addr constant <{ [30 x i8] }> <{ [30 x i8] c"failed to write data to socket" }>, align 1
@anon.112aa5216417f3e30cbfa40815f3b444.66 = private unnamed_addr constant <{ [31 x i8] }> <{ [31 x i8] c"couldn't read from input stream" }>, align 1
@anon.112aa5216417f3e30cbfa40815f3b444.67 = private unnamed_addr constant <{ [18 x i8] }> <{ [18 x i8] c"Captured attempt: " }>, align 1
@anon.112aa5216417f3e30cbfa40815f3b444.68 = private unnamed_addr constant <{ i8*, [8 x i8], i8*, [8 x i8] }> <{ i8* getelementptr inbounds (<{ [18 x i8] }>, <{ [18 x i8] }>* @anon.112aa5216417f3e30cbfa40815f3b444.67, i32 0, i32 0, i32 0), [8 x i8] c"\12\00\00\00\00\00\00\00", i8* getelementptr inbounds (<{ [1 x i8] }>, <{ [1 x i8] }>* @anon.112aa5216417f3e30cbfa40815f3b444.58, i32 0, i32 0, i32 0), [8 x i8] c"\01\00\00\00\00\00\00\00" }>, align 8
@anon.112aa5216417f3e30cbfa40815f3b444.69 = private unnamed_addr constant <{ [9 x i8] }> <{ [9 x i8] c"/flag.txt" }>, align 1
@anon.112aa5216417f3e30cbfa40815f3b444.70 = private unnamed_addr constant <{ [21 x i8] }> <{ [21 x i8] c"flag.txt wasn't found" }>, align 1
@anon.112aa5216417f3e30cbfa40815f3b444.71 = private unnamed_addr constant <{ [24 x i8] }> <{ [24 x i8] c"flag.txt wasn't readable" }>, align 1
@anon.112aa5216417f3e30cbfa40815f3b444.72 = private unnamed_addr constant <{ [32 x i8] }> <{ [32 x i8] c"lmao nice try, but that's not it" }>, align 1
@anon.112aa5216417f3e30cbfa40815f3b444.73 = private unnamed_addr constant <{ i8*, [16 x i8] }> <{ i8* getelementptr inbounds (<{ [11 x i8] }>, <{ [11 x i8] }>* @anon.112aa5216417f3e30cbfa40815f3b444.62, i32 0, i32 0, i32 0), [16 x i8] c"\0B\00\00\00\00\00\00\00\10\00\00\00\01\00\00\00" }>, align 8
@anon.112aa5216417f3e30cbfa40815f3b444.74 = private unnamed_addr constant <{ [12 x i8] }> <{ [12 x i8] c"0.0.0.0:4932" }>, align 1

; Function Attrs: norecurse nounwind nonlazybind readnone uwtable
define internal i64 @"_ZN36_$LT$T$u20$as$u20$core..any..Any$GT$7type_id17h3e94f3669ad6df0bE"({ [0 x i8]*, i64 }* noalias nocapture readonly align 8 dereferenceable(16) %self) unnamed_addr #0 {
start:
  ret i64 1229646359891580772
}

; Function Attrs: nonlazybind uwtable
define hidden i64 @_ZN3std2rt10lang_start17h9a376649ad328233E({ i8*, i8* } ()* nonnull %main, i64 %argc, i8** %argv) unnamed_addr #1 {
start:
  %_7 = alloca i8*, align 8
  %0 = bitcast i8** %_7 to i8*
  call void @llvm.lifetime.start.p0i8(i64 8, i8* nonnull %0)
  %1 = bitcast i8** %_7 to { i8*, i8* } ()**
  store { i8*, i8* } ()* %main, { i8*, i8* } ()** %1, align 8
  %_4.0 = bitcast i8** %_7 to {}*
  %2 = call i64 @_ZN3std2rt19lang_start_internal17h14e7168ba039f170E({}* nonnull align 1 %_4.0, [3 x i64]* noalias readonly align 8 dereferenceable(24) bitcast ({ void (i8**)*, i64, i64, i32 (i8**)*, i32 (i8**)*, i32 (i8**)* }* @vtable.0 to [3 x i64]*), i64 %argc, i8** %argv)
  call void @llvm.lifetime.end.p0i8(i64 8, i8* nonnull %0)
  ret i64 %2
}

; Function Attrs: nonlazybind uwtable
define internal i32 @"_ZN3std2rt10lang_start28_$u7b$$u7b$closure$u7d$$u7d$17h0ea676343dfb611dE"(i8** noalias nocapture readonly align 8 dereferenceable(8) %_1) unnamed_addr #1 personality i32 (i32, i32, i64, %"unwind::libunwind::_Unwind_Exception"*, %"unwind::libunwind::_Unwind_Context"*)* @rust_eh_personality {
start:
  %_11.i.i = alloca [1 x { i8*, i8* }], align 8
  %_4.i.i = alloca %"core::fmt::Arguments", align 8
  %err.i.i = alloca { {}*, [3 x i64]* }, align 8
  %0 = bitcast i8** %_1 to { i8*, i8* } ()**
  %_3 = load { i8*, i8* } ()*, { i8*, i8* } ()** %0, align 8, !nonnull !3
  %1 = tail call { i8*, i8* } %_3()
  %2 = extractvalue { i8*, i8* } %1, 0
  %3 = icmp eq i8* %2, null
  br i1 %3, label %"_ZN86_$LT$core..result..Result$LT$$LP$$RP$$C$E$GT$$u20$as$u20$std..process..Termination$GT$6report17h26cc0489eabbfa95E.exit", label %bb5.i

bb5.i:                                            ; preds = %start
  %4 = extractvalue { i8*, i8* } %1, 1
  %5 = ptrtoint i8* %4 to i64
  %6 = bitcast { {}*, [3 x i64]* }* %err.i.i to i8*
  call void @llvm.lifetime.start.p0i8(i64 16, i8* nonnull %6), !noalias !4
  %7 = bitcast { {}*, [3 x i64]* }* %err.i.i to i8**
  store i8* %2, i8** %7, align 8, !noalias !4
  %8 = getelementptr inbounds { {}*, [3 x i64]* }, { {}*, [3 x i64]* }* %err.i.i, i64 0, i32 1
  %9 = bitcast [3 x i64]** %8 to i64**
  %10 = bitcast [3 x i64]** %8 to i64*
  store i64 %5, i64* %10, align 8, !noalias !4
  %11 = bitcast %"core::fmt::Arguments"* %_4.i.i to i8*
  call void @llvm.lifetime.start.p0i8(i64 48, i8* nonnull %11), !noalias !4
  %12 = bitcast [1 x { i8*, i8* }]* %_11.i.i to i8*
  call void @llvm.lifetime.start.p0i8(i64 16, i8* nonnull %12), !noalias !4
  %13 = bitcast [1 x { i8*, i8* }]* %_11.i.i to { {}*, [3 x i64]* }**
  store { {}*, [3 x i64]* }* %err.i.i, { {}*, [3 x i64]* }** %13, align 8, !noalias !4
  %14 = getelementptr inbounds [1 x { i8*, i8* }], [1 x { i8*, i8* }]* %_11.i.i, i64 0, i64 0, i32 1
  store i8* bitcast (i1 ({ {}*, [3 x i64]* }*, %"core::fmt::Formatter"*)* @"_ZN63_$LT$alloc..boxed..Box$LT$T$GT$$u20$as$u20$core..fmt..Debug$GT$3fmt17h5f6b5d1a7f049ffaE" to i8*), i8** %14, align 8, !noalias !4
  %15 = bitcast %"core::fmt::Arguments"* %_4.i.i to [0 x { [0 x i8]*, i64 }]**
  store [0 x { [0 x i8]*, i64 }]* bitcast (<{ i8*, [8 x i8], i8*, [8 x i8] }>* @anon.112aa5216417f3e30cbfa40815f3b444.59 to [0 x { [0 x i8]*, i64 }]*), [0 x { [0 x i8]*, i64 }]** %15, align 8, !alias.scope !10, !noalias !13
  %16 = getelementptr inbounds %"core::fmt::Arguments", %"core::fmt::Arguments"* %_4.i.i, i64 0, i32 1, i32 1
  store i64 2, i64* %16, align 8, !alias.scope !10, !noalias !13
  %17 = getelementptr inbounds %"core::fmt::Arguments", %"core::fmt::Arguments"* %_4.i.i, i64 0, i32 3, i32 0
  store i64* null, i64** %17, align 8, !alias.scope !10, !noalias !13
  %18 = getelementptr inbounds %"core::fmt::Arguments", %"core::fmt::Arguments"* %_4.i.i, i64 0, i32 5, i32 0
  %19 = bitcast [0 x { i8*, i8* }]** %18 to [1 x { i8*, i8* }]**
  store [1 x { i8*, i8* }]* %_11.i.i, [1 x { i8*, i8* }]** %19, align 8, !alias.scope !10, !noalias !13
  %20 = getelementptr inbounds %"core::fmt::Arguments", %"core::fmt::Arguments"* %_4.i.i, i64 0, i32 5, i32 1
  store i64 1, i64* %20, align 8, !alias.scope !10, !noalias !13
  invoke void @_ZN3std2io5stdio7_eprint17h32bc25122c22ccfdE(%"core::fmt::Arguments"* noalias nocapture nonnull dereferenceable(48) %_4.i.i)
          to label %bb7.i.i unwind label %cleanup.i.i

bb3.i.i:                                          ; preds = %cleanup.i.i, %cleanup.i.i12.i
  %.sroa.0.0.i.i = phi i8* [ %37, %cleanup.i.i12.i ], [ %40, %cleanup.i.i ]
  %.sroa.6.0.i.i = phi i32 [ %38, %cleanup.i.i12.i ], [ %41, %cleanup.i.i ]
  %21 = insertvalue { i8*, i32 } undef, i8* %.sroa.0.0.i.i, 0
  %22 = insertvalue { i8*, i32 } %21, i32 %.sroa.6.0.i.i, 1
  resume { i8*, i32 } %22

bb7.i.i:                                          ; preds = %bb5.i
  call void @llvm.lifetime.end.p0i8(i64 48, i8* nonnull %11), !noalias !4
  call void @llvm.lifetime.end.p0i8(i64 16, i8* nonnull %12), !noalias !4
  %23 = getelementptr inbounds { {}*, [3 x i64]* }, { {}*, [3 x i64]* }* %err.i.i, i64 0, i32 0
  %24 = load {}*, {}** %23, align 8, !noalias !4, !nonnull !3
  %25 = bitcast [3 x i64]** %8 to void ({}*)***
  %26 = load void ({}*)**, void ({}*)*** %25, align 8, !noalias !4, !nonnull !3
  %27 = load void ({}*)*, void ({}*)** %26, align 8, !invariant.load !3, !nonnull !3
  invoke void %27({}* nonnull align 1 %24)
          to label %bb3.i.i10.i unwind label %cleanup.i.i12.i

bb3.i.i10.i:                                      ; preds = %bb7.i.i
  %28 = load i64*, i64** %9, align 8, !noalias !4, !nonnull !3
  %29 = getelementptr inbounds i64, i64* %28, i64 1
  %30 = load i64, i64* %29, align 8, !invariant.load !3, !alias.scope !16
  %_10.i.i.i9.i = icmp eq i64 %30, 0
  br i1 %_10.i.i.i9.i, label %"_ZN83_$LT$core..result..Result$LT$$u21$$C$E$GT$$u20$as$u20$std..process..Termination$GT$6report17h57b7ecb7ec2880dcE.exit.i", label %bb4.i.i.i11.i

bb4.i.i.i11.i:                                    ; preds = %bb3.i.i10.i
  %31 = load i8*, i8** %7, align 8, !noalias !4, !nonnull !3
  %32 = getelementptr inbounds i64, i64* %28, i64 2
  %33 = load i64, i64* %32, align 8, !invariant.load !3, !alias.scope !16
  call void @__rust_dealloc(i8* nonnull %31, i64 %30, i64 %33) #9, !noalias !16
  br label %"_ZN83_$LT$core..result..Result$LT$$u21$$C$E$GT$$u20$as$u20$std..process..Termination$GT$6report17h57b7ecb7ec2880dcE.exit.i"

cleanup.i.i12.i:                                  ; preds = %bb7.i.i
  %34 = landingpad { i8*, i32 }
          cleanup
  %35 = load i8*, i8** %7, align 8, !noalias !4, !nonnull !3
  %36 = load i64*, i64** %9, align 8, !noalias !4, !nonnull !3
  call fastcc void @_ZN5alloc5alloc8box_free17h39766183111e1fbdE(i8* nonnull %35, i64* noalias nonnull readonly align 8 dereferenceable(24) %36) #17
  %37 = extractvalue { i8*, i32 } %34, 0
  %38 = extractvalue { i8*, i32 } %34, 1
  br label %bb3.i.i

cleanup.i.i:                                      ; preds = %bb5.i
  %39 = landingpad { i8*, i32 }
          cleanup
  %40 = extractvalue { i8*, i32 } %39, 0
  %41 = extractvalue { i8*, i32 } %39, 1
  call fastcc void @_ZN4core3ptr18real_drop_in_place17hb9548981e85bfaaeE({ {}*, [3 x i64]* }* nonnull align 8 dereferenceable(16) %err.i.i) #17
  br label %bb3.i.i

"_ZN83_$LT$core..result..Result$LT$$u21$$C$E$GT$$u20$as$u20$std..process..Termination$GT$6report17h57b7ecb7ec2880dcE.exit.i": ; preds = %bb4.i.i.i11.i, %bb3.i.i10.i
  call void @llvm.lifetime.end.p0i8(i64 16, i8* nonnull %6), !noalias !4
  br label %"_ZN86_$LT$core..result..Result$LT$$LP$$RP$$C$E$GT$$u20$as$u20$std..process..Termination$GT$6report17h26cc0489eabbfa95E.exit"

"_ZN86_$LT$core..result..Result$LT$$LP$$RP$$C$E$GT$$u20$as$u20$std..process..Termination$GT$6report17h26cc0489eabbfa95E.exit": ; preds = %"_ZN83_$LT$core..result..Result$LT$$u21$$C$E$GT$$u20$as$u20$std..process..Termination$GT$6report17h57b7ecb7ec2880dcE.exit.i", %start
  %.0.i = phi i32 [ 0, %start ], [ 1, %"_ZN83_$LT$core..result..Result$LT$$u21$$C$E$GT$$u20$as$u20$std..process..Termination$GT$6report17h57b7ecb7ec2880dcE.exit.i" ]
  ret i32 %.0.i
}

; Function Attrs: norecurse nounwind nonlazybind readnone uwtable
define internal i64 @_ZN3std5error5Error7type_id17h59d9d71ba629941fE(%"std::io::error::Error"* noalias nocapture readonly align 8 dereferenceable(16) %self) unnamed_addr #0 {
start:
  ret i64 -2214285999057668664
}

; Function Attrs: norecurse nounwind nonlazybind readnone uwtable
define internal noalias align 8 dereferenceable_or_null(56) i64* @_ZN3std5error5Error9backtrace17he692434e154190d0E(%"std::io::error::Error"* noalias nocapture readonly align 8 dereferenceable(16) %self) unnamed_addr #0 {
start:
  ret i64* null
}

; Function Attrs: nonlazybind uwtable
define internal fastcc void @_ZN3std6future21poll_with_tls_context17h885a604c3570a4afE(%"core::task::poll::Poll<core::result::Result<usize, std::io::error::Error>>"* noalias nocapture dereferenceable(24), i64* nocapture readonly align 8 dereferenceable(24) %f) unnamed_addr #1 personality i32 (i32, i32, i64, %"unwind::libunwind::_Unwind_Exception"*, %"unwind::libunwind::_Unwind_Context"*)* @rust_eh_personality {
start:
  %e.i.i = alloca %"std::thread::local::AccessError", align 1
  %_reset = alloca i64*, align 8
  %1 = tail call align 8 dereferenceable_or_null(8) i64* @_ZN3std6future6TLS_CX7__getit17hdaabf9d2770484c0E()
  %2 = icmp eq i64* %1, null
  br i1 %2, label %bb5.i.i, label %"_ZN3std6thread5local17LocalKey$LT$T$GT$4with17h77edca364093b8c6E.exit"

bb5.i.i:                                          ; preds = %start
  %3 = getelementptr inbounds %"std::thread::local::AccessError", %"std::thread::local::AccessError"* %e.i.i, i64 0, i32 0, i64 0
  call void @llvm.lifetime.start.p0i8(i64 0, i8* nonnull %3)
  %_7.0.i.i = bitcast %"std::thread::local::AccessError"* %e.i.i to {}*
  call void @_ZN4core6result13unwrap_failed17hca6a012bfa3eb903E([0 x i8]* noalias nonnull readonly align 1 bitcast (<{ [70 x i8] }>* @anon.112aa5216417f3e30cbfa40815f3b444.2 to [0 x i8]*), i64 70, {}* nonnull align 1 %_7.0.i.i, [3 x i64]* noalias readonly align 8 dereferenceable(24) bitcast ({ void (%"std::thread::local::AccessError"*)*, i64, i64, i1 (%"std::thread::local::AccessError"*, %"core::fmt::Formatter"*)* }* @vtable.3 to [3 x i64]*))
  unreachable

"_ZN3std6thread5local17LocalKey$LT$T$GT$4with17h77edca364093b8c6E.exit": ; preds = %start
  %4 = bitcast i64* %1 to i64**
  %5 = load i64*, i64** %4, align 8
  store i64 0, i64* %1, align 8
  %6 = bitcast i64** %_reset to i8*
  call void @llvm.lifetime.start.p0i8(i64 8, i8* nonnull %6)
  store i64* %5, i64** %_reset, align 8
  %7 = icmp eq i64* %5, null
  br i1 %7, label %bb2.i, label %bb5

bb2.i:                                            ; preds = %"_ZN3std6thread5local17LocalKey$LT$T$GT$4with17h77edca364093b8c6E.exit"
  invoke void @_ZN4core6option13expect_failed17h7475be656707bdc0E([0 x i8]* noalias nonnull readonly align 1 bitcast (<{ [100 x i8] }>* @anon.112aa5216417f3e30cbfa40815f3b444.1 to [0 x i8]*), i64 100)
          to label %.noexc unwind label %cleanup

.noexc:                                           ; preds = %bb2.i
  unreachable

bb5:                                              ; preds = %"_ZN3std6thread5local17LocalKey$LT$T$GT$4with17h77edca364093b8c6E.exit"
  %_2.i.i = bitcast i64* %5 to i64**
  %8 = bitcast i64* %f to i64**
  %_71.i = load i64*, i64** %8, align 8, !noalias !19, !nonnull !3
  %9 = getelementptr inbounds i64, i64* %f, i64 1
  %10 = bitcast i64* %9 to [0 x i8]**
  %_9.0.i = load [0 x i8]*, [0 x i8]** %10, align 8, !noalias !19, !nonnull !3
  %11 = getelementptr inbounds i64, i64* %f, i64 2
  %_9.1.i = load i64, i64* %11, align 8, !noalias !19
  invoke void @"_ZN88_$LT$tokio..net..tcp..split..WriteHalf$u20$as$u20$tokio..io..async_write..AsyncWrite$GT$10poll_write17h58cb5b5072f3817bE"(%"core::task::poll::Poll<core::result::Result<usize, std::io::error::Error>>"* noalias nocapture nonnull sret dereferenceable(24) %0, i64* nonnull align 8 dereferenceable(8) %_71.i, i64** nonnull align 8 dereferenceable(8) %_2.i.i, [0 x i8]* noalias nonnull readonly align 1 %_9.0.i, i64 %_9.1.i)
          to label %bb6 unwind label %cleanup

bb6:                                              ; preds = %bb5
  call void @"_ZN64_$LT$std..future..SetOnDrop$u20$as$u20$core..ops..drop..Drop$GT$4drop17h024ba6850ad4d096E"(i64** nonnull align 8 dereferenceable(8) %_reset)
  call void @llvm.lifetime.end.p0i8(i64 8, i8* nonnull %6)
  ret void

cleanup:                                          ; preds = %bb5, %bb2.i
  %12 = landingpad { i8*, i32 }
          cleanup
  call fastcc void @_ZN4core3ptr18real_drop_in_place17h29f155998742d087E(i64** nonnull align 8 dereferenceable(8) %_reset) #17
  resume { i8*, i32 } %12
}

; Function Attrs: cold noinline noreturn nonlazybind uwtable
define internal fastcc void @_ZN3std9panicking11begin_panic17hebd941bf54afcd90E([0 x i8]* noalias nonnull readonly align 1 %msg.0, i64 %msg.1, { [0 x i64], { [0 x i8]*, i64 }, [0 x i32], i32, [0 x i32], i32, [0 x i32] }* noalias readonly align 8 dereferenceable(24) %file_line_col) unnamed_addr #2 personality i32 (i32, i32, i64, %"unwind::libunwind::_Unwind_Exception"*, %"unwind::libunwind::_Unwind_Context"*)* @rust_eh_personality {
bb2:
  %_6 = alloca { i8*, i64 }, align 8
  %0 = bitcast { i8*, i64 }* %_6 to i8*
  call void @llvm.lifetime.start.p0i8(i64 16, i8* nonnull %0)
  %1 = getelementptr inbounds [0 x i8], [0 x i8]* %msg.0, i64 0, i64 0
  %.fca.0.gep = getelementptr inbounds { i8*, i64 }, { i8*, i64 }* %_6, i64 0, i32 0
  store i8* %1, i8** %.fca.0.gep, align 8
  %.fca.1.gep = getelementptr inbounds { i8*, i64 }, { i8*, i64 }* %_6, i64 0, i32 1
  store i64 %msg.1, i64* %.fca.1.gep, align 8
  %_3.0 = bitcast { i8*, i64 }* %_6 to {}*
  call void @_ZN3std9panicking20rust_panic_with_hook17h787d7f532b084b9aE({}* nonnull align 1 %_3.0, [3 x i64]* noalias readonly align 8 dereferenceable(24) bitcast ({ void ({ i8*, i64 }*)*, i64, i64, { {}*, [3 x i64]* } ({ i8*, i64 }*)*, { {}*, [3 x i64]* } ({ i8*, i64 }*)* }* @vtable.2 to [3 x i64]*), i64* noalias readonly align 8 dereferenceable_or_null(48) null, { [0 x i64], { [0 x i8]*, i64 }, [0 x i32], i32, [0 x i32], i32, [0 x i32] }* noalias nonnull readonly align 8 dereferenceable(24) %file_line_col)
  unreachable
}

; Function Attrs: nonlazybind uwtable
define internal void @_ZN3std9panicking3try7do_call17h0828aa63555b211dE(i8* nocapture %data) unnamed_addr #1 personality i32 (i32, i32, i64, %"unwind::libunwind::_Unwind_Exception"*, %"unwind::libunwind::_Unwind_Context"*)* @rust_eh_personality {
start:
  %cx.i.i.i.i = alloca i64*, align 8
  %waker_ref.i.i.i.i = alloca { i8*, i64* }, align 8
  %_18.i.i.i.i = alloca <2 x i8*>, align 16
  %_11.i.i.i.i = alloca %"core::fmt::Arguments", align 8
  %guard.i.i.i = alloca { i64*, i8 }, align 8
  %_7.idx = bitcast i8* %data to i64**
  %_7.idx.val = load i64*, i64** %_7.idx, align 8
  %_7.idx2 = getelementptr i8, i8* %data, i64 8
  %0 = bitcast i8* %_7.idx2 to {}***
  %_7.idx2.val3 = load {}**, {}*** %0, align 8
  %_10.0.val = load i64, i64* %_7.idx.val, align 8, !noalias !22
  %1 = bitcast { i64*, i8 }* %guard.i.i.i to i8*
  call void @llvm.lifetime.start.p0i8(i64 16, i8* nonnull %1), !noalias !25
  %2 = bitcast { i64*, i8 }* %guard.i.i.i to i64*
  store i64 %_10.0.val, i64* %2, align 8, !noalias !25
  %3 = getelementptr inbounds { i64*, i8 }, { i64*, i8 }* %guard.i.i.i, i64 0, i32 1
  store i8 0, i8* %3, align 8, !noalias !25
  %_5.cast.i.i.i = inttoptr i64 %_10.0.val to %"tokio::task::core::Core<std::future::GenFuture<main::{{closure}}::{{closure}}>>"*
  %4 = getelementptr inbounds %"tokio::task::core::Core<std::future::GenFuture<main::{{closure}}::{{closure}}>>", %"tokio::task::core::Core<std::future::GenFuture<main::{{closure}}::{{closure}}>>"* %_5.cast.i.i.i, i64 0, i32 0, i64 0
  %_6.i.i.i.i = load i64, i64* %4, align 8, !range !28, !noalias !25
  %5 = icmp eq i64 %_6.i.i.i.i, 0
  br i1 %5, label %bb15.i.i.i.i, label %bb2.i.i.i.i

bb2.i.i.i.i:                                      ; preds = %start
  %6 = bitcast %"core::fmt::Arguments"* %_11.i.i.i.i to i8*
  call void @llvm.lifetime.start.p0i8(i64 48, i8* nonnull %6), !noalias !25
  %7 = bitcast <2 x i8*>* %_18.i.i.i.i to i8*
  call void @llvm.lifetime.start.p0i8(i64 16, i8* nonnull %7), !noalias !25
  store <2 x i8*> <i8* bitcast (<{ i8*, [8 x i8] }>* @anon.112aa5216417f3e30cbfa40815f3b444.27 to i8*), i8* bitcast (i1 ({ [0 x i8]*, i64 }*, %"core::fmt::Formatter"*)* @"_ZN44_$LT$$RF$T$u20$as$u20$core..fmt..Display$GT$3fmt17h568fe60fa079166bE" to i8*)>, <2 x i8*>* %_18.i.i.i.i, align 16, !noalias !25
  %8 = bitcast %"core::fmt::Arguments"* %_11.i.i.i.i to [0 x { [0 x i8]*, i64 }]**
  store [0 x { [0 x i8]*, i64 }]* bitcast (<{ i8*, [8 x i8] }>* @anon.112aa5216417f3e30cbfa40815f3b444.21 to [0 x { [0 x i8]*, i64 }]*), [0 x { [0 x i8]*, i64 }]** %8, align 8, !alias.scope !29, !noalias !32
  %9 = getelementptr inbounds %"core::fmt::Arguments", %"core::fmt::Arguments"* %_11.i.i.i.i, i64 0, i32 1, i32 1
  store i64 1, i64* %9, align 8, !alias.scope !29, !noalias !32
  %10 = getelementptr inbounds %"core::fmt::Arguments", %"core::fmt::Arguments"* %_11.i.i.i.i, i64 0, i32 3, i32 0
  store i64* null, i64** %10, align 8, !alias.scope !29, !noalias !32
  %11 = getelementptr inbounds %"core::fmt::Arguments", %"core::fmt::Arguments"* %_11.i.i.i.i, i64 0, i32 5, i32 0
  %12 = bitcast [0 x { i8*, i8* }]** %11 to <2 x i8*>**
  store <2 x i8*>* %_18.i.i.i.i, <2 x i8*>** %12, align 8, !alias.scope !29, !noalias !32
  %13 = getelementptr inbounds %"core::fmt::Arguments", %"core::fmt::Arguments"* %_11.i.i.i.i, i64 0, i32 5, i32 1
  store i64 1, i64* %13, align 8, !alias.scope !29, !noalias !32
  invoke void @_ZN3std9panicking15begin_panic_fmt17h8df736026eee128cE(%"core::fmt::Arguments"* noalias nonnull readonly align 8 dereferenceable(48) %_11.i.i.i.i, { [0 x i64], { [0 x i8]*, i64 }, [0 x i32], i32, [0 x i32], i32, [0 x i32] }* noalias readonly align 8 dereferenceable(24) bitcast (<{ i8*, [16 x i8] }>* @anon.112aa5216417f3e30cbfa40815f3b444.28 to { [0 x i64], { [0 x i8]*, i64 }, [0 x i32], i32, [0 x i32], i32, [0 x i32] }*))
          to label %.noexc.i.i.i unwind label %cleanup.i.i.i, !noalias !25

.noexc.i.i.i:                                     ; preds = %bb2.i.i.i.i
  unreachable

bb15.i.i.i.i:                                     ; preds = %start
  %_68.i.i.i = load {}*, {}** %_7.idx2.val3, align 8, !alias.scope !25, !nonnull !3
  %14 = bitcast { i8*, i64* }* %waker_ref.i.i.i.i to i8*
  call void @llvm.lifetime.start.p0i8(i64 16, i8* nonnull %14), !noalias !25
  %15 = invoke { i8*, i64* } @_ZN4core4task4wake8RawWaker3new17h3348ef682dfa8f58E({}* nonnull %_68.i.i.i, %"core::task::wake::RawWakerVTable"* noalias readonly align 8 dereferenceable(32) bitcast (<{ i8*, i8*, i8*, i8*, [0 x i8] }>* @anon.112aa5216417f3e30cbfa40815f3b444.35 to %"core::task::wake::RawWakerVTable"*))
          to label %.noexc5.i.i.i unwind label %cleanup.i.i.i, !noalias !25

.noexc5.i.i.i:                                    ; preds = %bb15.i.i.i.i
  %16 = getelementptr inbounds %"tokio::task::core::Core<std::future::GenFuture<main::{{closure}}::{{closure}}>>", %"tokio::task::core::Core<std::future::GenFuture<main::{{closure}}::{{closure}}>>"* %_5.cast.i.i.i, i64 0, i32 1, i32 2, i64 0
  %_7.1.i.i.i.i.i = extractvalue { i8*, i64* } %15, 1
  %17 = icmp ne i64* %_7.1.i.i.i.i.i, null
  tail call void @llvm.assume(i1 %17), !noalias !25
  %.fca.0.extract.i.i.i.i = extractvalue { i8*, i64* } %15, 0
  %.fca.0.gep.i.i.i.i = getelementptr inbounds { i8*, i64* }, { i8*, i64* }* %waker_ref.i.i.i.i, i64 0, i32 0
  store i8* %.fca.0.extract.i.i.i.i, i8** %.fca.0.gep.i.i.i.i, align 8, !noalias !25
  %.fca.1.gep.i.i.i.i = getelementptr inbounds { i8*, i64* }, { i8*, i64* }* %waker_ref.i.i.i.i, i64 0, i32 1
  store i64* %_7.1.i.i.i.i.i, i64** %.fca.1.gep.i.i.i.i, align 8, !noalias !25
  %18 = bitcast i64** %cx.i.i.i.i to i8*
  call void @llvm.lifetime.start.p0i8(i64 8, i8* nonnull %18), !noalias !25
  %19 = bitcast i64** %cx.i.i.i.i to { i8*, i64* }**
  store { i8*, i64* }* %waker_ref.i.i.i.i, { i8*, i64* }** %19, align 8, !noalias !25
  invoke fastcc void @"_ZN80_$LT$std..future..GenFuture$LT$T$GT$$u20$as$u20$core..future..future..Future$GT$4poll17he4a2e106d9378ec8E"(i64* nonnull align 8 dereferenceable(184) %16, i64** nonnull align 8 dereferenceable(8) %cx.i.i.i.i)
          to label %"_ZN101_$LT$std..panic..AssertUnwindSafe$LT$F$GT$$u20$as$u20$core..ops..function..FnOnce$LT$$LP$$RP$$GT$$GT$9call_once17h84a6fee52bda7451E.exit" unwind label %cleanup.i.i.i, !noalias !25

cleanup.i.i.i:                                    ; preds = %.noexc5.i.i.i, %bb15.i.i.i.i, %bb2.i.i.i.i
  %20 = landingpad { i8*, i32 }
          cleanup
  call fastcc void @_ZN4core3ptr18real_drop_in_place17hbe25490c23878e8eE({ i64*, i8 }* nonnull align 8 dereferenceable(16) %guard.i.i.i) #17, !noalias !25
  resume { i8*, i32 } %20

"_ZN101_$LT$std..panic..AssertUnwindSafe$LT$F$GT$$u20$as$u20$core..ops..function..FnOnce$LT$$LP$$RP$$GT$$GT$9call_once17h84a6fee52bda7451E.exit": ; preds = %.noexc5.i.i.i
  call void @llvm.lifetime.end.p0i8(i64 8, i8* nonnull %18), !noalias !25
  call void @llvm.lifetime.end.p0i8(i64 16, i8* nonnull %14), !noalias !25
  call void @llvm.lifetime.end.p0i8(i64 16, i8* nonnull %1), !noalias !25
  store i8 1, i8* %data, align 8
  ret void
}

; Function Attrs: nonlazybind uwtable
define internal void @_ZN3std9panicking3try7do_call17h356bce4e10637fc0E(i8* nocapture readonly %data) unnamed_addr #1 personality i32 (i32, i32, i64, %"unwind::libunwind::_Unwind_Exception"*, %"unwind::libunwind::_Unwind_Context"*)* @rust_eh_personality {
start:
  %_2.sroa.5.i.i.i.i = alloca [23 x i64], align 8
  %0 = bitcast i8* %data to %"tokio::task::core::Core<std::future::GenFuture<main::{{closure}}::{{closure}}>>"***
  %_7.val3 = load %"tokio::task::core::Core<std::future::GenFuture<main::{{closure}}::{{closure}}>>"**, %"tokio::task::core::Core<std::future::GenFuture<main::{{closure}}::{{closure}}>>"*** %0, align 8
  %_3.i.i.i = load %"tokio::task::core::Core<std::future::GenFuture<main::{{closure}}::{{closure}}>>"*, %"tokio::task::core::Core<std::future::GenFuture<main::{{closure}}::{{closure}}>>"** %_7.val3, align 8, !nonnull !3
  %_2.sroa.5.0.sroa_cast10.i.i.i.i = bitcast [23 x i64]* %_2.sroa.5.i.i.i.i to i8*
  call void @llvm.lifetime.start.p0i8(i64 184, i8* nonnull %_2.sroa.5.0.sroa_cast10.i.i.i.i)
  %1 = bitcast %"tokio::task::core::Core<std::future::GenFuture<main::{{closure}}::{{closure}}>>"* %_3.i.i.i to %"tokio::task::core::Stage<std::future::GenFuture<main::{{closure}}::{{closure}}>>"*
  invoke fastcc void @_ZN4core3ptr18real_drop_in_place17hca145ce36531b1ceE(%"tokio::task::core::Stage<std::future::GenFuture<main::{{closure}}::{{closure}}>>"* nonnull align 8 dereferenceable(192) %1)
          to label %"_ZN101_$LT$std..panic..AssertUnwindSafe$LT$F$GT$$u20$as$u20$core..ops..function..FnOnce$LT$$LP$$RP$$GT$$GT$9call_once17h2c469918848a0364E.exit" unwind label %cleanup.i.i.i.i

cleanup.i.i.i.i:                                  ; preds = %start
  %2 = landingpad { i8*, i32 }
          cleanup
  %_2.sroa.0.0..sroa_idx.i.i.i.i = getelementptr inbounds %"tokio::task::core::Core<std::future::GenFuture<main::{{closure}}::{{closure}}>>", %"tokio::task::core::Core<std::future::GenFuture<main::{{closure}}::{{closure}}>>"* %_3.i.i.i, i64 0, i32 0, i64 0
  store i64 2, i64* %_2.sroa.0.0..sroa_idx.i.i.i.i, align 8
  %_2.sroa.5.0..sroa_idx4.i.i.i.i = getelementptr inbounds %"tokio::task::core::Core<std::future::GenFuture<main::{{closure}}::{{closure}}>>", %"tokio::task::core::Core<std::future::GenFuture<main::{{closure}}::{{closure}}>>"* %_3.i.i.i, i64 0, i32 1, i32 2
  %_2.sroa.5.0..sroa_cast.i.i.i.i = bitcast [23 x i64]* %_2.sroa.5.0..sroa_idx4.i.i.i.i to i8*
  call void @llvm.memcpy.p0i8.p0i8.i64(i8* nonnull align 8 %_2.sroa.5.0..sroa_cast.i.i.i.i, i8* nonnull align 8 %_2.sroa.5.0.sroa_cast10.i.i.i.i, i64 184, i1 false)
  resume { i8*, i32 } %2

"_ZN101_$LT$std..panic..AssertUnwindSafe$LT$F$GT$$u20$as$u20$core..ops..function..FnOnce$LT$$LP$$RP$$GT$$GT$9call_once17h2c469918848a0364E.exit": ; preds = %start
  %_2.sroa.0.0..sroa_idx1.i.i.i.i = getelementptr inbounds %"tokio::task::core::Core<std::future::GenFuture<main::{{closure}}::{{closure}}>>", %"tokio::task::core::Core<std::future::GenFuture<main::{{closure}}::{{closure}}>>"* %_3.i.i.i, i64 0, i32 0, i64 0
  store i64 2, i64* %_2.sroa.0.0..sroa_idx1.i.i.i.i, align 8
  %_2.sroa.5.0..sroa_idx6.i.i.i.i = getelementptr inbounds %"tokio::task::core::Core<std::future::GenFuture<main::{{closure}}::{{closure}}>>", %"tokio::task::core::Core<std::future::GenFuture<main::{{closure}}::{{closure}}>>"* %_3.i.i.i, i64 0, i32 1, i32 2
  %_2.sroa.5.0..sroa_cast7.i.i.i.i = bitcast [23 x i64]* %_2.sroa.5.0..sroa_idx6.i.i.i.i to i8*
  call void @llvm.memcpy.p0i8.p0i8.i64(i8* nonnull align 8 %_2.sroa.5.0..sroa_cast7.i.i.i.i, i8* nonnull align 8 %_2.sroa.5.0.sroa_cast10.i.i.i.i, i64 184, i1 false)
  call void @llvm.lifetime.end.p0i8(i64 184, i8* nonnull %_2.sroa.5.0.sroa_cast10.i.i.i.i)
  ret void
}

; Function Attrs: nonlazybind uwtable
define internal void @_ZN3std9panicking3try7do_call17hcc1357f0800e2dd6E(i8* nocapture %data) unnamed_addr #1 personality i32 (i32, i32, i64, %"unwind::libunwind::_Unwind_Exception"*, %"unwind::libunwind::_Unwind_Context"*)* @rust_eh_personality {
start:
  %cx.i.i.i.i = alloca i64*, align 8
  %waker_ref.i.i.i.i = alloca { i8*, i64* }, align 8
  %_18.i.i.i.i = alloca <2 x i8*>, align 16
  %_11.i.i.i.i = alloca %"core::fmt::Arguments", align 8
  %guard.i.i.i = alloca { i64*, i8 }, align 8
  %_7.idx = bitcast i8* %data to i64**
  %_7.idx.val = load i64*, i64** %_7.idx, align 8
  %_7.idx2 = getelementptr i8, i8* %data, i64 8
  %0 = bitcast i8* %_7.idx2 to {}***
  %_7.idx2.val3 = load {}**, {}*** %0, align 8
  %_10.0.val = load i64, i64* %_7.idx.val, align 8, !noalias !35
  %1 = bitcast { i64*, i8 }* %guard.i.i.i to i8*
  call void @llvm.lifetime.start.p0i8(i64 16, i8* nonnull %1), !noalias !38
  %2 = bitcast { i64*, i8 }* %guard.i.i.i to i64*
  store i64 %_10.0.val, i64* %2, align 8, !noalias !38
  %3 = getelementptr inbounds { i64*, i8 }, { i64*, i8 }* %guard.i.i.i, i64 0, i32 1
  store i8 0, i8* %3, align 8, !noalias !38
  %_5.cast.i.i.i = inttoptr i64 %_10.0.val to %"tokio::task::core::Core<std::future::GenFuture<main::{{closure}}::{{closure}}>>"*
  %4 = getelementptr inbounds %"tokio::task::core::Core<std::future::GenFuture<main::{{closure}}::{{closure}}>>", %"tokio::task::core::Core<std::future::GenFuture<main::{{closure}}::{{closure}}>>"* %_5.cast.i.i.i, i64 0, i32 0, i64 0
  %_6.i.i.i.i = load i64, i64* %4, align 8, !range !28, !noalias !38
  %5 = icmp eq i64 %_6.i.i.i.i, 0
  br i1 %5, label %bb15.i.i.i.i, label %bb2.i.i.i.i

bb2.i.i.i.i:                                      ; preds = %start
  %6 = bitcast %"core::fmt::Arguments"* %_11.i.i.i.i to i8*
  call void @llvm.lifetime.start.p0i8(i64 48, i8* nonnull %6), !noalias !38
  %7 = bitcast <2 x i8*>* %_18.i.i.i.i to i8*
  call void @llvm.lifetime.start.p0i8(i64 16, i8* nonnull %7), !noalias !38
  store <2 x i8*> <i8* bitcast (<{ i8*, [8 x i8] }>* @anon.112aa5216417f3e30cbfa40815f3b444.27 to i8*), i8* bitcast (i1 ({ [0 x i8]*, i64 }*, %"core::fmt::Formatter"*)* @"_ZN44_$LT$$RF$T$u20$as$u20$core..fmt..Display$GT$3fmt17h568fe60fa079166bE" to i8*)>, <2 x i8*>* %_18.i.i.i.i, align 16, !noalias !38
  %8 = bitcast %"core::fmt::Arguments"* %_11.i.i.i.i to [0 x { [0 x i8]*, i64 }]**
  store [0 x { [0 x i8]*, i64 }]* bitcast (<{ i8*, [8 x i8] }>* @anon.112aa5216417f3e30cbfa40815f3b444.21 to [0 x { [0 x i8]*, i64 }]*), [0 x { [0 x i8]*, i64 }]** %8, align 8, !alias.scope !41, !noalias !44
  %9 = getelementptr inbounds %"core::fmt::Arguments", %"core::fmt::Arguments"* %_11.i.i.i.i, i64 0, i32 1, i32 1
  store i64 1, i64* %9, align 8, !alias.scope !41, !noalias !44
  %10 = getelementptr inbounds %"core::fmt::Arguments", %"core::fmt::Arguments"* %_11.i.i.i.i, i64 0, i32 3, i32 0
  store i64* null, i64** %10, align 8, !alias.scope !41, !noalias !44
  %11 = getelementptr inbounds %"core::fmt::Arguments", %"core::fmt::Arguments"* %_11.i.i.i.i, i64 0, i32 5, i32 0
  %12 = bitcast [0 x { i8*, i8* }]** %11 to <2 x i8*>**
  store <2 x i8*>* %_18.i.i.i.i, <2 x i8*>** %12, align 8, !alias.scope !41, !noalias !44
  %13 = getelementptr inbounds %"core::fmt::Arguments", %"core::fmt::Arguments"* %_11.i.i.i.i, i64 0, i32 5, i32 1
  store i64 1, i64* %13, align 8, !alias.scope !41, !noalias !44
  invoke void @_ZN3std9panicking15begin_panic_fmt17h8df736026eee128cE(%"core::fmt::Arguments"* noalias nonnull readonly align 8 dereferenceable(48) %_11.i.i.i.i, { [0 x i64], { [0 x i8]*, i64 }, [0 x i32], i32, [0 x i32], i32, [0 x i32] }* noalias readonly align 8 dereferenceable(24) bitcast (<{ i8*, [16 x i8] }>* @anon.112aa5216417f3e30cbfa40815f3b444.28 to { [0 x i64], { [0 x i8]*, i64 }, [0 x i32], i32, [0 x i32], i32, [0 x i32] }*))
          to label %.noexc.i.i.i unwind label %cleanup.i.i.i, !noalias !38

.noexc.i.i.i:                                     ; preds = %bb2.i.i.i.i
  unreachable

bb15.i.i.i.i:                                     ; preds = %start
  %_68.i.i.i = load {}*, {}** %_7.idx2.val3, align 8, !alias.scope !38, !nonnull !3
  %14 = bitcast { i8*, i64* }* %waker_ref.i.i.i.i to i8*
  call void @llvm.lifetime.start.p0i8(i64 16, i8* nonnull %14), !noalias !38
  %15 = invoke { i8*, i64* } @_ZN4core4task4wake8RawWaker3new17h3348ef682dfa8f58E({}* nonnull %_68.i.i.i, %"core::task::wake::RawWakerVTable"* noalias readonly align 8 dereferenceable(32) bitcast (<{ i8*, i8*, i8*, i8*, [0 x i8] }>* @anon.112aa5216417f3e30cbfa40815f3b444.34 to %"core::task::wake::RawWakerVTable"*))
          to label %.noexc5.i.i.i unwind label %cleanup.i.i.i, !noalias !38

.noexc5.i.i.i:                                    ; preds = %bb15.i.i.i.i
  %16 = getelementptr inbounds %"tokio::task::core::Core<std::future::GenFuture<main::{{closure}}::{{closure}}>>", %"tokio::task::core::Core<std::future::GenFuture<main::{{closure}}::{{closure}}>>"* %_5.cast.i.i.i, i64 0, i32 1, i32 2, i64 0
  %_7.1.i.i.i.i.i = extractvalue { i8*, i64* } %15, 1
  %17 = icmp ne i64* %_7.1.i.i.i.i.i, null
  tail call void @llvm.assume(i1 %17), !noalias !38
  %.fca.0.extract.i.i.i.i = extractvalue { i8*, i64* } %15, 0
  %.fca.0.gep.i.i.i.i = getelementptr inbounds { i8*, i64* }, { i8*, i64* }* %waker_ref.i.i.i.i, i64 0, i32 0
  store i8* %.fca.0.extract.i.i.i.i, i8** %.fca.0.gep.i.i.i.i, align 8, !noalias !38
  %.fca.1.gep.i.i.i.i = getelementptr inbounds { i8*, i64* }, { i8*, i64* }* %waker_ref.i.i.i.i, i64 0, i32 1
  store i64* %_7.1.i.i.i.i.i, i64** %.fca.1.gep.i.i.i.i, align 8, !noalias !38
  %18 = bitcast i64** %cx.i.i.i.i to i8*
  call void @llvm.lifetime.start.p0i8(i64 8, i8* nonnull %18), !noalias !38
  %19 = bitcast i64** %cx.i.i.i.i to { i8*, i64* }**
  store { i8*, i64* }* %waker_ref.i.i.i.i, { i8*, i64* }** %19, align 8, !noalias !38
  invoke fastcc void @"_ZN80_$LT$std..future..GenFuture$LT$T$GT$$u20$as$u20$core..future..future..Future$GT$4poll17he4a2e106d9378ec8E"(i64* nonnull align 8 dereferenceable(184) %16, i64** nonnull align 8 dereferenceable(8) %cx.i.i.i.i)
          to label %"_ZN101_$LT$std..panic..AssertUnwindSafe$LT$F$GT$$u20$as$u20$core..ops..function..FnOnce$LT$$LP$$RP$$GT$$GT$9call_once17h482a14af1638a4b9E.exit" unwind label %cleanup.i.i.i, !noalias !38

cleanup.i.i.i:                                    ; preds = %.noexc5.i.i.i, %bb15.i.i.i.i, %bb2.i.i.i.i
  %20 = landingpad { i8*, i32 }
          cleanup
  call fastcc void @_ZN4core3ptr18real_drop_in_place17hbe25490c23878e8eE({ i64*, i8 }* nonnull align 8 dereferenceable(16) %guard.i.i.i) #17, !noalias !38
  resume { i8*, i32 } %20

"_ZN101_$LT$std..panic..AssertUnwindSafe$LT$F$GT$$u20$as$u20$core..ops..function..FnOnce$LT$$LP$$RP$$GT$$GT$9call_once17h482a14af1638a4b9E.exit": ; preds = %.noexc5.i.i.i
  call void @llvm.lifetime.end.p0i8(i64 8, i8* nonnull %18), !noalias !38
  call void @llvm.lifetime.end.p0i8(i64 16, i8* nonnull %14), !noalias !38
  call void @llvm.lifetime.end.p0i8(i64 16, i8* nonnull %1), !noalias !38
  store i8 1, i8* %data, align 8
  ret void
}

; Function Attrs: nonlazybind uwtable
define internal zeroext i1 @"_ZN44_$LT$$RF$T$u20$as$u20$core..fmt..Display$GT$3fmt17h568fe60fa079166bE"({ [0 x i8]*, i64 }* noalias nocapture readonly align 8 dereferenceable(16) %self, %"core::fmt::Formatter"* align 8 dereferenceable(96) %f) unnamed_addr #1 {
start:
  %0 = getelementptr inbounds { [0 x i8]*, i64 }, { [0 x i8]*, i64 }* %self, i64 0, i32 0
  %_4.0 = load [0 x i8]*, [0 x i8]** %0, align 8, !nonnull !3
  %1 = getelementptr inbounds { [0 x i8]*, i64 }, { [0 x i8]*, i64 }* %self, i64 0, i32 1
  %_4.1 = load i64, i64* %1, align 8
  %2 = tail call zeroext i1 @"_ZN42_$LT$str$u20$as$u20$core..fmt..Display$GT$3fmt17hc19f19c00f549debE"([0 x i8]* noalias nonnull readonly align 1 %_4.0, i64 %_4.1, %"core::fmt::Formatter"* nonnull align 8 dereferenceable(96) %f)
  ret i1 %2
}

; Function Attrs: inlinehint nonlazybind uwtable
define internal zeroext i1 @"_ZN45_$LT$$LP$$RP$$u20$as$u20$core..fmt..Debug$GT$3fmt17he0b7e4faabc5658fE"({}* noalias nocapture nonnull readonly align 1 %self, %"core::fmt::Formatter"* align 8 dereferenceable(96) %f) unnamed_addr #3 {
start:
  %0 = tail call zeroext i1 @_ZN4core3fmt9Formatter3pad17hb5b5664cd7ca8060E(%"core::fmt::Formatter"* nonnull align 8 dereferenceable(96) %f, [0 x i8]* noalias nonnull readonly align 1 bitcast (<{ [2 x i8] }>* @anon.112aa5216417f3e30cbfa40815f3b444.3 to [0 x i8]*), i64 2)
  ret i1 %0
}

; Function Attrs: nonlazybind uwtable
define internal i32 @"_ZN4core3ops8function6FnOnce40call_once$u7b$$u7b$vtable.shim$u7d$$u7d$17h3e432dc8d786e559E"(i8** nocapture readonly %_1) unnamed_addr #1 personality i32 (i32, i32, i64, %"unwind::libunwind::_Unwind_Exception"*, %"unwind::libunwind::_Unwind_Context"*)* @rust_eh_personality {
start:
  %_1.i = alloca i8*, align 8
  %0 = bitcast i8** %_1 to i64*
  %1 = load i64, i64* %0, align 8, !range !47
  %2 = bitcast i8** %_1.i to i8*
  call void @llvm.lifetime.start.p0i8(i64 8, i8* nonnull %2)
  %3 = bitcast i8** %_1.i to i64*
  store i64 %1, i64* %3, align 8
  %4 = call i32 @"_ZN3std2rt10lang_start28_$u7b$$u7b$closure$u7d$$u7d$17h0ea676343dfb611dE"(i8** noalias nonnull readonly align 8 dereferenceable(8) %_1.i)
  call void @llvm.lifetime.end.p0i8(i64 8, i8* nonnull %2)
  ret i32 %4
}

; Function Attrs: norecurse nounwind nonlazybind readonly uwtable
define internal nonnull i8* @"_ZN4core3ops8function6FnOnce40call_once$u7b$$u7b$vtable.shim$u7d$$u7d$17h55201cde9aab2698E"(i64** nocapture readonly %_1) unnamed_addr #4 personality i32 (i32, i32, i64, %"unwind::libunwind::_Unwind_Exception"*, %"unwind::libunwind::_Unwind_Context"*)* @rust_eh_personality {
start:
  %0 = bitcast i64** %_1 to i8*****
  %1 = load i8****, i8***** %0, align 8, !nonnull !3
  %_3.val14.i.i = load i8***, i8**** %1, align 8
  %2 = load i8**, i8*** %_3.val14.i.i, align 8, !alias.scope !48, !nonnull !3
  %_3.i.i3.i.i = load i8*, i8** %2, align 8, !noalias !48, !nonnull !3
  ret i8* %_3.i.i3.i.i
}

; Function Attrs: nonlazybind uwtable
define internal fastcc void @_ZN4core3ptr18real_drop_in_place17h02dd6b3a0a1c609bE(%"core::result::Result<usize, std::io::error::Error>"* nocapture readonly align 8 dereferenceable(24) %_1) unnamed_addr #1 personality i32 (i32, i32, i64, %"unwind::libunwind::_Unwind_Exception"*, %"unwind::libunwind::_Unwind_Context"*)* @rust_eh_personality {
start:
  %0 = getelementptr inbounds %"core::result::Result<usize, std::io::error::Error>", %"core::result::Result<usize, std::io::error::Error>"* %_1, i64 0, i32 0, i64 0
  %_2 = load i64, i64* %0, align 8, !range !51
  %1 = icmp eq i64 %_2, 0
  br i1 %1, label %bb1, label %bb2

bb1:                                              ; preds = %_ZN4core3ptr18real_drop_in_place17h27b9bb4166fdb623E.exit.i.i, %bb2, %start
  ret void

bb2:                                              ; preds = %start
  %2 = getelementptr inbounds %"core::result::Result<usize, std::io::error::Error>", %"core::result::Result<usize, std::io::error::Error>"* %_1, i64 0, i32 2
  %3 = bitcast [2 x i64]* %2 to i8*
  %4 = load i8, i8* %3, align 8, !range !52
  %switch.i.i = icmp ult i8 %4, 2
  br i1 %switch.i.i, label %bb1, label %bb2.i.i

bb2.i.i:                                          ; preds = %bb2
  %5 = getelementptr inbounds %"core::result::Result<usize, std::io::error::Error>", %"core::result::Result<usize, std::io::error::Error>"* %_1, i64 0, i32 2, i64 1
  %6 = bitcast i64* %5 to %"std::io::error::Custom"**
  %7 = load %"std::io::error::Custom"*, %"std::io::error::Custom"** %6, align 8, !nonnull !3
  %8 = bitcast %"std::io::error::Custom"* %7 to {}**
  %9 = load {}*, {}** %8, align 8, !nonnull !3
  %10 = getelementptr inbounds %"std::io::error::Custom", %"std::io::error::Custom"* %7, i64 0, i32 1, i32 1
  %11 = bitcast [3 x i64]** %10 to void ({}*)***
  %12 = load void ({}*)**, void ({}*)*** %11, align 8, !nonnull !3
  %13 = load void ({}*)*, void ({}*)** %12, align 8, !invariant.load !3, !nonnull !3
  invoke void %13({}* nonnull align 1 %9)
          to label %bb3.i.i.i.i.i unwind label %cleanup.i.i.i.i.i

bb3.i.i.i.i.i:                                    ; preds = %bb2.i.i
  %14 = bitcast [3 x i64]** %10 to i64**
  %15 = load i64*, i64** %14, align 8, !nonnull !3
  %16 = getelementptr inbounds i64, i64* %15, i64 1
  %17 = load i64, i64* %16, align 8, !invariant.load !3, !alias.scope !53
  %_10.i.i.i.i.i.i = icmp eq i64 %17, 0
  br i1 %_10.i.i.i.i.i.i, label %_ZN4core3ptr18real_drop_in_place17h27b9bb4166fdb623E.exit.i.i, label %bb4.i.i.i.i.i.i

bb4.i.i.i.i.i.i:                                  ; preds = %bb3.i.i.i.i.i
  %18 = bitcast %"std::io::error::Custom"* %7 to i8**
  %19 = load i8*, i8** %18, align 8, !nonnull !3
  %20 = getelementptr inbounds i64, i64* %15, i64 2
  %21 = load i64, i64* %20, align 8, !invariant.load !3, !alias.scope !53
  tail call void @__rust_dealloc(i8* nonnull %19, i64 %17, i64 %21) #9, !noalias !53
  br label %_ZN4core3ptr18real_drop_in_place17h27b9bb4166fdb623E.exit.i.i

cleanup.i.i.i.i.i:                                ; preds = %bb2.i.i
  %22 = landingpad { i8*, i32 }
          cleanup
  %23 = bitcast %"std::io::error::Custom"* %7 to i8**
  %24 = load i8*, i8** %23, align 8, !nonnull !3
  %25 = bitcast [3 x i64]** %10 to i64**
  %26 = load i64*, i64** %25, align 8, !nonnull !3
  tail call fastcc void @_ZN5alloc5alloc8box_free17h39766183111e1fbdE(i8* nonnull %24, i64* noalias nonnull readonly align 8 dereferenceable(24) %26) #17
  %27 = bitcast i64* %5 to i64**
  %28 = load i64*, i64** %27, align 8, !nonnull !3
  tail call fastcc void @_ZN5alloc5alloc8box_free17ha829dafaf86a282fE(i64* nonnull %28) #17
  resume { i8*, i32 } %22

_ZN4core3ptr18real_drop_in_place17h27b9bb4166fdb623E.exit.i.i: ; preds = %bb4.i.i.i.i.i.i, %bb3.i.i.i.i.i
  %29 = bitcast i64* %5 to i8**
  %30 = load i8*, i8** %29, align 8, !nonnull !3
  tail call void @__rust_dealloc(i8* nonnull %30, i64 24, i64 8) #9
  br label %bb1
}

; Function Attrs: nounwind nonlazybind uwtable
define internal fastcc void @_ZN4core3ptr18real_drop_in_place17h02e96a77055b26b7E(%"mio::poll::ReadinessNode"** nocapture readonly align 8 dereferenceable(8) %_1) unnamed_addr #5 personality i32 (i32, i32, i64, %"unwind::libunwind::_Unwind_Exception"*, %"unwind::libunwind::_Unwind_Context"*)* @rust_eh_personality {
start:
  %0 = bitcast %"mio::poll::ReadinessNode"** %_1 to i8**
  %1 = load i8*, i8** %0, align 8, !nonnull !3
  tail call void @__rust_dealloc(i8* nonnull %1, i64 64, i64 8) #9
  ret void
}

; Function Attrs: nonlazybind uwtable
define internal fastcc void @_ZN4core3ptr18real_drop_in_place17h032bb3b7232478c2E(i64* %_1.val1) unnamed_addr #1 {
start:
  tail call void @_ZN5tokio4task3raw7RawTask9drop_task17h698abef7adc201bbE(i64* nonnull %_1.val1)
  ret void
}

; Function Attrs: nonlazybind uwtable
define internal fastcc void @_ZN4core3ptr18real_drop_in_place17h039a5de4cf8b2434E(%"core::option::Option<mio::net::tcp::TcpStream>"* align 8 dereferenceable(24) %_1) unnamed_addr #1 {
start:
  %0 = getelementptr inbounds %"core::option::Option<mio::net::tcp::TcpStream>", %"core::option::Option<mio::net::tcp::TcpStream>"* %_1, i64 0, i32 0, i64 0
  %_2 = load i64, i64* %0, align 8, !range !51
  %1 = icmp eq i64 %_2, 0
  br i1 %1, label %bb1, label %bb2

bb1:                                              ; preds = %bb2, %start
  ret void

bb2:                                              ; preds = %start
  %2 = getelementptr inbounds %"core::option::Option<mio::net::tcp::TcpStream>", %"core::option::Option<mio::net::tcp::TcpStream>"* %_1, i64 0, i32 2, i64 1
  %3 = bitcast i64* %2 to i32*
  tail call void @"_ZN70_$LT$std..sys..unix..fd..FileDesc$u20$as$u20$core..ops..drop..Drop$GT$4drop17hf2b9d188fe38bb32E"(i32* nonnull align 4 dereferenceable(4) %3)
  br label %bb1
}

; Function Attrs: nounwind nonlazybind uwtable
define internal fastcc void @_ZN4core3ptr18real_drop_in_place17h0805755c54a7a761E(i64** nocapture readonly align 8 dereferenceable(8) %_1) unnamed_addr #5 {
start:
  %0 = bitcast i64** %_1 to {}**
  %1 = load {}*, {}** %0, align 8
  %magicptr = ptrtoint {}* %1 to i64
  switch i64 %magicptr, label %bb3.i.i.i [
    i64 -1, label %bb1
    i64 0, label %bb1
  ]

bb1:                                              ; preds = %bb6.i.i.i, %bb3.i.i.i, %start, %start
  ret void

bb3.i.i.i:                                        ; preds = %start
  %2 = bitcast {}* %1 to i64*
  %_9.i.i.i = getelementptr inbounds i64, i64* %2, i64 1
  %3 = atomicrmw sub i64* %_9.i.i.i, i64 1 release
  %_7.i.i.i = icmp eq i64 %3, 1
  br i1 %_7.i.i.i, label %bb6.i.i.i, label %bb1

bb6.i.i.i:                                        ; preds = %bb3.i.i.i
  fence acquire
  %4 = bitcast i64** %_1 to i8**
  %_164.i.i.i = load i8*, i8** %4, align 8, !nonnull !3
  tail call void @__rust_dealloc(i8* nonnull %_164.i.i.i, i64 144, i64 8) #9
  br label %bb1
}

; Function Attrs: nonlazybind uwtable
define internal fastcc void @_ZN4core3ptr18real_drop_in_place17h0a3379bb6d3dc22fE(i64** nocapture readonly align 8 dereferenceable(8) %_1) unnamed_addr #1 {
start:
  %0 = bitcast i64** %_1 to %"core::sync::atomic::AtomicUsize"**
  %self.val12.i.i = load %"core::sync::atomic::AtomicUsize"*, %"core::sync::atomic::AtomicUsize"** %0, align 8
  %_5.i.i.i = getelementptr inbounds %"core::sync::atomic::AtomicUsize", %"core::sync::atomic::AtomicUsize"* %self.val12.i.i, i64 0, i32 0, i64 0
  %1 = atomicrmw sub i64* %_5.i.i.i, i64 1 release
  %_2.i.i = icmp eq i64 %1, 1
  br i1 %_2.i.i, label %bb3.i.i, label %_ZN4core3ptr18real_drop_in_place17hc21f2067eaf38c08E.exit

bb3.i.i:                                          ; preds = %start
  fence acquire
  tail call fastcc void @"_ZN5alloc4sync12Arc$LT$T$GT$9drop_slow17h27122a2f92d5b3e1E"(i64** nonnull align 8 dereferenceable(8) %_1)
  br label %_ZN4core3ptr18real_drop_in_place17hc21f2067eaf38c08E.exit

_ZN4core3ptr18real_drop_in_place17hc21f2067eaf38c08E.exit: ; preds = %bb3.i.i, %start
  ret void
}

; Function Attrs: nonlazybind uwtable
define internal fastcc void @_ZN4core3ptr18real_drop_in_place17h0b30e8d9d34d5f31E(i64** nocapture readonly align 8 dereferenceable(8) %_1) unnamed_addr #1 {
start:
  %0 = bitcast i64** %_1 to {}**
  %1 = load {}*, {}** %0, align 8
  %2 = icmp eq {}* %1, null
  br i1 %2, label %bb1, label %bb2

bb1:                                              ; preds = %bb3.i.i, %bb2, %start
  ret void

bb2:                                              ; preds = %start
  %_5.i.i.i = bitcast {}* %1 to i64*
  %3 = atomicrmw sub i64* %_5.i.i.i, i64 1 release
  %_2.i.i = icmp eq i64 %3, 1
  br i1 %_2.i.i, label %bb3.i.i, label %bb1

bb3.i.i:                                          ; preds = %bb2
  fence acquire
  tail call fastcc void @"_ZN5alloc4sync12Arc$LT$T$GT$9drop_slow17h5d84505ff6cb1dc8E"(i64** nonnull align 8 dereferenceable(8) %_1)
  br label %bb1
}

; Function Attrs: nonlazybind uwtable
define internal fastcc void @_ZN4core3ptr18real_drop_in_place17h0c5e93ad2f336c64E({ i64*, i64 }* nocapture readonly align 8 dereferenceable(16) %_1) unnamed_addr #1 personality i32 (i32, i32, i64, %"unwind::libunwind::_Unwind_Exception"*, %"unwind::libunwind::_Unwind_Context"*)* @rust_eh_personality {
start:
  %0 = bitcast { i64*, i64 }* %_1 to [0 x i64*]**
  %_4.0.i = load [0 x i64*]*, [0 x i64*]** %0, align 8, !nonnull !3
  %1 = getelementptr inbounds { i64*, i64 }, { i64*, i64 }* %_1, i64 0, i32 1
  %_4.1.i = load i64, i64* %1, align 8
  %2 = getelementptr inbounds [0 x i64*], [0 x i64*]* %_4.0.i, i64 0, i64 0
  %3 = getelementptr inbounds [0 x i64*], [0 x i64*]* %_4.0.i, i64 0, i64 %_4.1.i
  br label %bb11.i.i.i

bb2.i.i.i:                                        ; preds = %cleanup.i.i.i, %bb8.i.i.i
  resume { i8*, i32 } %6

bb8.i.i.i:                                        ; preds = %cleanup.i.i.i, %bb8.i.i.i
  %_9.011.i.i.i = phi i64** [ %4, %bb8.i.i.i ], [ %5, %cleanup.i.i.i ]
  %4 = getelementptr inbounds i64*, i64** %_9.011.i.i.i, i64 1
  %_9.0.val.i.i.i = load i64*, i64** %_9.011.i.i.i, align 8
  tail call fastcc void @_ZN4core3ptr18real_drop_in_place17h032bb3b7232478c2E(i64* %_9.0.val.i.i.i) #17
  %_12.i.i.i = icmp eq i64** %4, %3
  br i1 %_12.i.i.i, label %bb2.i.i.i, label %bb8.i.i.i

bb10.i.i.i:                                       ; preds = %bb11.i.i.i
  %5 = getelementptr inbounds i64*, i64** %_9.1.i.i.i, i64 1
  %_9.1.val.i.i.i = load i64*, i64** %_9.1.i.i.i, align 8
  invoke void @_ZN5tokio4task3raw7RawTask9drop_task17h698abef7adc201bbE(i64* nonnull %_9.1.val.i.i.i)
          to label %bb11.i.i.i unwind label %cleanup.i.i.i

bb11.i.i.i:                                       ; preds = %bb10.i.i.i, %start
  %_9.1.i.i.i = phi i64** [ %2, %start ], [ %5, %bb10.i.i.i ]
  %_14.i.i.i = icmp eq i64** %_9.1.i.i.i, %3
  br i1 %_14.i.i.i, label %"_ZN155_$LT$$LT$alloc..collections..vec_deque..VecDeque$LT$T$GT$$u20$as$u20$core..ops..drop..Drop$GT$..drop..Dropper$LT$T$GT$$u20$as$u20$core..ops..drop..Drop$GT$4drop17hbb33cffebb787837E.exit", label %bb10.i.i.i

cleanup.i.i.i:                                    ; preds = %bb10.i.i.i
  %6 = landingpad { i8*, i32 }
          cleanup
  %_1210.i.i.i = icmp eq i64** %5, %3
  br i1 %_1210.i.i.i, label %bb2.i.i.i, label %bb8.i.i.i

"_ZN155_$LT$$LT$alloc..collections..vec_deque..VecDeque$LT$T$GT$$u20$as$u20$core..ops..drop..Drop$GT$..drop..Dropper$LT$T$GT$$u20$as$u20$core..ops..drop..Drop$GT$4drop17hbb33cffebb787837E.exit": ; preds = %bb11.i.i.i
  ret void
}

; Function Attrs: nonlazybind uwtable
define internal fastcc void @_ZN4core3ptr18real_drop_in_place17h0e7bfccaa03490aaE(i64** nocapture readonly align 8 dereferenceable(8) %_1) unnamed_addr #1 personality i32 (i32, i32, i64, %"unwind::libunwind::_Unwind_Exception"*, %"unwind::libunwind::_Unwind_Context"*)* @rust_eh_personality {
start:
  %0 = bitcast i64** %_1 to {}**
  %1 = load {}*, {}** %0, align 8
  %2 = icmp eq {}* %1, null
  %3 = bitcast {}* %1 to i64*
  br i1 %2, label %_ZN4core3ptr18real_drop_in_place17he4e9ce7ec2951332E.exit, label %bb2.i.i

bb2.i.i:                                          ; preds = %start
  %_2.i.i.i = getelementptr inbounds i64, i64* %3, i64 2
  %_4.i.i.i = bitcast i64* %_2.i.i.i to %"tokio::loom::std::atomic_usize::AtomicUsize"*
  %_7.i.i4.i = invoke i64 @_ZN5tokio4sync7oneshot5State10set_closed17h1245aa12b7db01aeE(%"tokio::loom::std::atomic_usize::AtomicUsize"* nonnull align 8 dereferenceable(8) %_4.i.i.i)
          to label %_7.i.i.noexc.i unwind label %cleanup.i

_7.i.i.noexc.i:                                   ; preds = %bb2.i.i
  %4 = invoke zeroext i1 @_ZN5tokio4sync7oneshot5State14is_tx_task_set17h1483fb4bbe76be02E(i64 %_7.i.i4.i)
          to label %.noexc.i unwind label %cleanup.i

.noexc.i:                                         ; preds = %_7.i.i.noexc.i
  br i1 %4, label %bb4.i.i.i, label %bb4.i

bb4.i.i.i:                                        ; preds = %.noexc.i
  %5 = invoke zeroext i1 @_ZN5tokio4sync7oneshot5State11is_complete17h783483c417cbb1fbE(i64 %_7.i.i4.i)
          to label %.noexc5.i unwind label %cleanup.i

.noexc5.i:                                        ; preds = %bb4.i.i.i
  br i1 %5, label %bb4.i, label %bb8.i.i.i

bb8.i.i.i:                                        ; preds = %.noexc5.i
  %_3.i.i.i.i = getelementptr inbounds i64, i64* %3, i64 3
  %6 = getelementptr inbounds i64, i64* %3, i64 4
  %7 = bitcast i64* %6 to %"core::task::wake::RawWakerVTable"**
  %8 = load %"core::task::wake::RawWakerVTable"*, %"core::task::wake::RawWakerVTable"** %7, align 8, !alias.scope !56, !nonnull !3
  %9 = getelementptr inbounds %"core::task::wake::RawWakerVTable", %"core::task::wake::RawWakerVTable"* %8, i64 0, i32 5
  %_2.i.i.i.i.i.i.i.i = load void ({}*)*, void ({}*)** %9, align 8, !noalias !56, !nonnull !3
  %10 = bitcast i64* %_3.i.i.i.i to {}**
  %_3.i.i.i.i.i.i.i.i = load {}*, {}** %10, align 8, !alias.scope !56
  invoke void %_2.i.i.i.i.i.i.i.i({}* %_3.i.i.i.i.i.i.i.i)
          to label %bb4.i unwind label %cleanup.i

bb4.i:                                            ; preds = %bb8.i.i.i, %.noexc5.i, %.noexc.i
  %.pr.i = load {}*, {}** %0, align 8
  %11 = icmp eq {}* %.pr.i, null
  br i1 %11, label %_ZN4core3ptr18real_drop_in_place17he4e9ce7ec2951332E.exit, label %bb2.i7.i

bb2.i7.i:                                         ; preds = %bb4.i
  %_5.i.i.i.i.i = bitcast {}* %.pr.i to i64*
  %12 = atomicrmw sub i64* %_5.i.i.i.i.i, i64 1 release
  %_2.i.i.i.i = icmp eq i64 %12, 1
  br i1 %_2.i.i.i.i, label %bb3.i.i.i.i, label %_ZN4core3ptr18real_drop_in_place17he4e9ce7ec2951332E.exit

bb3.i.i.i.i:                                      ; preds = %bb2.i7.i
  fence acquire
  tail call fastcc void @"_ZN5alloc4sync12Arc$LT$T$GT$9drop_slow17hdf925423c13282e1E"(i64** nonnull align 8 dereferenceable(8) %_1)
  br label %_ZN4core3ptr18real_drop_in_place17he4e9ce7ec2951332E.exit

cleanup.i:                                        ; preds = %bb8.i.i.i, %bb4.i.i.i, %_7.i.i.noexc.i, %bb2.i.i
  %13 = landingpad { i8*, i32 }
          cleanup
  tail call fastcc void @_ZN4core3ptr18real_drop_in_place17h42c5a505e750659bE(i64** nonnull align 8 dereferenceable(8) %_1) #17
  resume { i8*, i32 } %13

_ZN4core3ptr18real_drop_in_place17he4e9ce7ec2951332E.exit: ; preds = %bb3.i.i.i.i, %bb2.i7.i, %bb4.i, %start
  ret void
}

; Function Attrs: nonlazybind uwtable
define internal fastcc void @_ZN4core3ptr18real_drop_in_place17h0fa96f10805463b4E(%"core::ops::generator::GeneratorState<(), core::result::Result<tokio::net::tcp::listener::TcpListener, std::io::error::Error>>"* align 8 dereferenceable(64) %_1) unnamed_addr #1 {
start:
  %0 = getelementptr inbounds %"core::ops::generator::GeneratorState<(), core::result::Result<tokio::net::tcp::listener::TcpListener, std::io::error::Error>>", %"core::ops::generator::GeneratorState<(), core::result::Result<tokio::net::tcp::listener::TcpListener, std::io::error::Error>>"* %_1, i64 0, i32 0, i64 0
  %1 = load i64, i64* %0, align 8, !range !28
  %2 = icmp eq i64 %1, 2
  br i1 %2, label %bb1, label %bb2

bb1:                                              ; preds = %bb3.i, %bb2.i, %start
  ret void

bb2:                                              ; preds = %start
  %3 = icmp eq i64 %1, 0
  %4 = getelementptr inbounds %"core::ops::generator::GeneratorState<(), core::result::Result<tokio::net::tcp::listener::TcpListener, std::io::error::Error>>", %"core::ops::generator::GeneratorState<(), core::result::Result<tokio::net::tcp::listener::TcpListener, std::io::error::Error>>"* %_1, i64 0, i32 2
  br i1 %3, label %bb2.i, label %bb3.i

bb2.i:                                            ; preds = %bb2
  %5 = bitcast [7 x i64]* %4 to %"tokio::net::tcp::listener::TcpListener"*
  tail call fastcc void @_ZN4core3ptr18real_drop_in_place17ha4eaf2372c827098E(%"tokio::net::tcp::listener::TcpListener"* nonnull align 8 dereferenceable(56) %5)
  br label %bb1

bb3.i:                                            ; preds = %bb2
  %6 = bitcast [7 x i64]* %4 to %"std::io::error::Error"*
  tail call void @_ZN4core3ptr18real_drop_in_place17h664ae0e66d8bb2d1E(%"std::io::error::Error"* nonnull align 8 dereferenceable(16) %6)
  br label %bb1
}

; Function Attrs: nonlazybind uwtable
define internal fastcc void @_ZN4core3ptr18real_drop_in_place17h17386eb751d7fc4eE({ i64*, i8 }* nocapture readonly align 8 dereferenceable(16) %_1) unnamed_addr #1 personality i32 (i32, i32, i64, %"unwind::libunwind::_Unwind_Exception"*, %"unwind::libunwind::_Unwind_Context"*)* @rust_eh_personality {
start:
  %0 = bitcast { i64*, i8 }* %_1 to %"std::sync::mutex::Mutex<tokio::runtime::thread_pool::queue::global::Pointers>"**
  %1 = load %"std::sync::mutex::Mutex<tokio::runtime::thread_pool::queue::global::Pointers>"*, %"std::sync::mutex::Mutex<tokio::runtime::thread_pool::queue::global::Pointers>"** %0, align 8, !nonnull !3
  %_5.i = getelementptr inbounds { i64*, i8 }, { i64*, i8 }* %_1, i64 0, i32 1
  %_5.val.i = load i8, i8* %_5.i, align 8
  %_5.i.i = icmp eq i8 %_5.val.i, 0
  br i1 %_5.i.i, label %bb3.i.i, label %"_ZN79_$LT$std..sync..mutex..MutexGuard$LT$T$GT$$u20$as$u20$core..ops..drop..Drop$GT$4drop17h0174f6e69d564c90E.exit"

bb3.i.i:                                          ; preds = %start
  %2 = tail call zeroext i1 @_ZN3std9panicking9panicking17hb29bc5349f72a38fE()
  br i1 %2, label %bb6.i.i, label %"_ZN79_$LT$std..sync..mutex..MutexGuard$LT$T$GT$$u20$as$u20$core..ops..drop..Drop$GT$4drop17h0174f6e69d564c90E.exit"

bb6.i.i:                                          ; preds = %bb3.i.i
  %_6.i.i.i = getelementptr inbounds %"std::sync::mutex::Mutex<tokio::runtime::thread_pool::queue::global::Pointers>", %"std::sync::mutex::Mutex<tokio::runtime::thread_pool::queue::global::Pointers>"* %1, i64 0, i32 3, i32 0, i64 0
  store atomic i8 1, i8* %_6.i.i.i monotonic, align 1
  br label %"_ZN79_$LT$std..sync..mutex..MutexGuard$LT$T$GT$$u20$as$u20$core..ops..drop..Drop$GT$4drop17h0174f6e69d564c90E.exit"

"_ZN79_$LT$std..sync..mutex..MutexGuard$LT$T$GT$$u20$as$u20$core..ops..drop..Drop$GT$4drop17h0174f6e69d564c90E.exit": ; preds = %bb6.i.i, %bb3.i.i, %start
  %3 = bitcast { i64*, i8 }* %_1 to %"libc::unix::linux_like::linux::pthread_mutex_t"***
  %4 = load %"libc::unix::linux_like::linux::pthread_mutex_t"**, %"libc::unix::linux_like::linux::pthread_mutex_t"*** %3, align 8, !nonnull !3
  %_71.i = load %"libc::unix::linux_like::linux::pthread_mutex_t"*, %"libc::unix::linux_like::linux::pthread_mutex_t"** %4, align 8, !nonnull !3
  %5 = tail call i32 @pthread_mutex_unlock(%"libc::unix::linux_like::linux::pthread_mutex_t"* nonnull %_71.i) #9
  ret void
}

; Function Attrs: norecurse nounwind nonlazybind readnone uwtable
define internal void @_ZN4core3ptr18real_drop_in_place17h17dac8a9e600688dE(i8** nocapture align 8 dereferenceable(8) %_1) unnamed_addr #0 {
start:
  ret void
}

; Function Attrs: nonlazybind uwtable
define internal fastcc void @_ZN4core3ptr18real_drop_in_place17h1adadefef472b07aE(%"core::result::Result<(tokio::net::tcp::stream::TcpStream, std::net::addr::SocketAddr), std::io::error::Error>"* align 8 dereferenceable(96) %_1) unnamed_addr #1 {
start:
  %0 = getelementptr inbounds %"core::result::Result<(tokio::net::tcp::stream::TcpStream, std::net::addr::SocketAddr), std::io::error::Error>", %"core::result::Result<(tokio::net::tcp::stream::TcpStream, std::net::addr::SocketAddr), std::io::error::Error>"* %_1, i64 0, i32 0, i64 0
  %_2 = load i64, i64* %0, align 8, !range !51
  %1 = icmp eq i64 %_2, 0
  %2 = getelementptr inbounds %"core::result::Result<(tokio::net::tcp::stream::TcpStream, std::net::addr::SocketAddr), std::io::error::Error>", %"core::result::Result<(tokio::net::tcp::stream::TcpStream, std::net::addr::SocketAddr), std::io::error::Error>"* %_1, i64 0, i32 2
  br i1 %1, label %bb2, label %bb3

bb1:                                              ; preds = %bb3, %bb2
  ret void

bb2:                                              ; preds = %start
  %3 = bitcast [11 x i64]* %2 to %"tokio::net::tcp::stream::TcpStream"*
  tail call fastcc void @_ZN4core3ptr18real_drop_in_place17h52b5450cfbc055ffE(%"tokio::net::tcp::stream::TcpStream"* nonnull align 8 dereferenceable(56) %3)
  br label %bb1

bb3:                                              ; preds = %start
  %4 = bitcast [11 x i64]* %2 to %"std::io::error::Error"*
  tail call void @_ZN4core3ptr18real_drop_in_place17h664ae0e66d8bb2d1E(%"std::io::error::Error"* nonnull align 8 dereferenceable(16) %4)
  br label %bb1
}

; Function Attrs: nonlazybind uwtable
define internal fastcc void @_ZN4core3ptr18real_drop_in_place17h1bb45bb9d03280c2E(%"tokio::runtime::context::enter::DropGuard"* align 8 dereferenceable(32) %_1) unnamed_addr #1 personality i32 (i32, i32, i64, %"unwind::libunwind::_Unwind_Exception"*, %"unwind::libunwind::_Unwind_Context"*)* @rust_eh_personality {
start:
  invoke void @"_ZN83_$LT$tokio..runtime..context..enter..DropGuard$u20$as$u20$core..ops..drop..Drop$GT$4drop17hfc81e99be70e3074E"(%"tokio::runtime::context::enter::DropGuard"* nonnull align 8 dereferenceable(32) %_1)
          to label %bb4 unwind label %cleanup

bb4:                                              ; preds = %start
  %0 = getelementptr inbounds %"tokio::runtime::context::enter::DropGuard", %"tokio::runtime::context::enter::DropGuard"* %_1, i64 0, i32 0, i64 0
  %1 = load i64, i64* %0, align 8, !range !61
  %2 = icmp eq i64 %1, 3
  br i1 %2, label %_ZN4core3ptr18real_drop_in_place17h6ad18ef181805c70E.exit, label %bb2.i

bb2.i:                                            ; preds = %bb4
  %3 = bitcast %"tokio::runtime::context::enter::DropGuard"* %_1 to %"tokio::runtime::handle::Handle"*
  tail call fastcc void @_ZN4core3ptr18real_drop_in_place17he00dcfa818232a3eE(%"tokio::runtime::handle::Handle"* nonnull align 8 dereferenceable(32) %3)
  br label %_ZN4core3ptr18real_drop_in_place17h6ad18ef181805c70E.exit

_ZN4core3ptr18real_drop_in_place17h6ad18ef181805c70E.exit: ; preds = %bb2.i, %bb4
  ret void

cleanup:                                          ; preds = %start
  %4 = landingpad { i8*, i32 }
          cleanup
  %5 = bitcast %"tokio::runtime::context::enter::DropGuard"* %_1 to %"core::option::Option<tokio::runtime::handle::Handle>"*
  tail call fastcc void @_ZN4core3ptr18real_drop_in_place17h6ad18ef181805c70E(%"core::option::Option<tokio::runtime::handle::Handle>"* nonnull align 8 dereferenceable(32) %5) #17
  resume { i8*, i32 } %4
}

; Function Attrs: nonlazybind uwtable
define internal void @_ZN4core3ptr18real_drop_in_place17h1dfbf6d2047bdac8E(%"mio::net::tcp::TcpStream"* align 8 dereferenceable(16) %_1) unnamed_addr #1 {
start:
  %0 = getelementptr inbounds %"mio::net::tcp::TcpStream", %"mio::net::tcp::TcpStream"* %_1, i64 0, i32 3
  tail call void @"_ZN70_$LT$std..sys..unix..fd..FileDesc$u20$as$u20$core..ops..drop..Drop$GT$4drop17hf2b9d188fe38bb32E"(i32* nonnull align 4 dereferenceable(4) %0)
  ret void
}

; Function Attrs: nonlazybind uwtable
define internal fastcc void @_ZN4core3ptr18real_drop_in_place17h1e17b893d760546dE(%"tokio::runtime::thread_pool::shared::Shared"* nocapture readonly align 8 dereferenceable(24) %_1) unnamed_addr #1 {
start:
  %0 = bitcast %"tokio::runtime::thread_pool::shared::Shared"* %_1 to %"core::sync::atomic::AtomicUsize"**
  %self.val12.i.i.i = load %"core::sync::atomic::AtomicUsize"*, %"core::sync::atomic::AtomicUsize"** %0, align 8
  %_5.i.i.i.i = getelementptr inbounds %"core::sync::atomic::AtomicUsize", %"core::sync::atomic::AtomicUsize"* %self.val12.i.i.i, i64 0, i32 0, i64 0
  %1 = atomicrmw sub i64* %_5.i.i.i.i, i64 1 release
  %_2.i.i.i = icmp eq i64 %1, 1
  br i1 %_2.i.i.i, label %bb3.i.i.i, label %_ZN4core3ptr18real_drop_in_place17hb6066f68c21f383eE.exit

bb3.i.i.i:                                        ; preds = %start
  %2 = bitcast %"tokio::runtime::thread_pool::shared::Shared"* %_1 to i64**
  fence acquire
  tail call fastcc void @"_ZN5alloc4sync12Arc$LT$T$GT$9drop_slow17h0a7fbfec7b3b8de4E"(i64** nonnull align 8 dereferenceable(8) %2)
  br label %_ZN4core3ptr18real_drop_in_place17hb6066f68c21f383eE.exit

_ZN4core3ptr18real_drop_in_place17hb6066f68c21f383eE.exit: ; preds = %bb3.i.i.i, %start
  ret void
}

; Function Attrs: nonlazybind uwtable
define internal fastcc void @_ZN4core3ptr18real_drop_in_place17h26bbc049ccc22ec4E({ i64, i8* }* nocapture readonly align 8 dereferenceable(16) %_1) unnamed_addr #1 {
start:
  %0 = getelementptr inbounds { i64, i8* }, { i64, i8* }* %_1, i64 0, i32 0
  %_2 = load i64, i64* %0, align 8, !range !51
  %1 = icmp eq i64 %_2, 0
  %2 = getelementptr inbounds { i64, i8* }, { i64, i8* }* %_1, i64 0, i32 1
  %3 = bitcast i8** %2 to i64**
  br i1 %1, label %bb2, label %bb3

bb1:                                              ; preds = %bb3.i.i.i1, %bb3, %bb6.i.i.i, %bb3.i.i.i, %bb2, %bb2
  ret void

bb2:                                              ; preds = %start
  %self.val3.i.i.i = load i64*, i64** %3, align 8
  %magicptr.i.i.i = ptrtoint i64* %self.val3.i.i.i to i64
  switch i64 %magicptr.i.i.i, label %bb3.i.i.i [
    i64 -1, label %bb1
    i64 0, label %bb1
  ]

bb3.i.i.i:                                        ; preds = %bb2
  %_9.i.i.i = getelementptr inbounds i64, i64* %self.val3.i.i.i, i64 1
  %4 = atomicrmw sub i64* %_9.i.i.i, i64 1 release
  %_7.i.i.i = icmp eq i64 %4, 1
  br i1 %_7.i.i.i, label %bb6.i.i.i, label %bb1

bb6.i.i.i:                                        ; preds = %bb3.i.i.i
  fence acquire
  %_164.i.i.i = load i8*, i8** %2, align 8, !nonnull !3
  tail call void @__rust_dealloc(i8* nonnull %_164.i.i.i, i64 144, i64 8) #9
  br label %bb1

bb3:                                              ; preds = %start
  %5 = bitcast i8** %2 to %"core::sync::atomic::AtomicUsize"**
  %self.val12.i.i.i = load %"core::sync::atomic::AtomicUsize"*, %"core::sync::atomic::AtomicUsize"** %5, align 8
  %_5.i.i.i.i = getelementptr inbounds %"core::sync::atomic::AtomicUsize", %"core::sync::atomic::AtomicUsize"* %self.val12.i.i.i, i64 0, i32 0, i64 0
  %6 = atomicrmw sub i64* %_5.i.i.i.i, i64 1 release
  %_2.i.i.i = icmp eq i64 %6, 1
  br i1 %_2.i.i.i, label %bb3.i.i.i1, label %bb1

bb3.i.i.i1:                                       ; preds = %bb3
  fence acquire
  tail call fastcc void @"_ZN5alloc4sync12Arc$LT$T$GT$9drop_slow17h11947988d5165e69E"(i64** nonnull align 8 dereferenceable(8) %3)
  br label %bb1
}

; Function Attrs: nonlazybind uwtable
define internal fastcc void @_ZN4core3ptr18real_drop_in_place17h29f155998742d087E(i64** align 8 dereferenceable(8) %_1) unnamed_addr #1 {
start:
  tail call void @"_ZN64_$LT$std..future..SetOnDrop$u20$as$u20$core..ops..drop..Drop$GT$4drop17h024ba6850ad4d096E"(i64** nonnull align 8 dereferenceable(8) %_1)
  ret void
}

; Function Attrs: nonlazybind uwtable
define internal fastcc void @_ZN4core3ptr18real_drop_in_place17h2bad6363e544193aE(i32* align 4 dereferenceable(4) %_1) unnamed_addr #1 {
start:
  tail call void @"_ZN70_$LT$std..sys..unix..fd..FileDesc$u20$as$u20$core..ops..drop..Drop$GT$4drop17hf2b9d188fe38bb32E"(i32* nonnull align 4 dereferenceable(4) %_1)
  ret void
}

; Function Attrs: norecurse nounwind nonlazybind readnone uwtable
define internal void @_ZN4core3ptr18real_drop_in_place17h2c3b0f290c9aa1b2E({ [0 x i8]*, i64 }* nocapture align 8 dereferenceable(16) %_1) unnamed_addr #0 {
start:
  ret void
}

; Function Attrs: nonlazybind uwtable
define internal fastcc void @_ZN4core3ptr18real_drop_in_place17h2c6aabfae917c7e6E(%"core::result::Result<std::sync::mutex::MutexGuard<tokio::task::queue::RemoteQueue<tokio::runtime::basic_scheduler::SchedulerPriv>>, std::sys_common::poison::PoisonError<std::sync::mutex::MutexGuard<tokio::task::queue::RemoteQueue<tokio::runtime::basic_scheduler::SchedulerPriv>>>>"* nocapture readonly align 8 dereferenceable(24) %_1) unnamed_addr #1 personality i32 (i32, i32, i64, %"unwind::libunwind::_Unwind_Exception"*, %"unwind::libunwind::_Unwind_Context"*)* @rust_eh_personality {
start:
  %0 = getelementptr inbounds %"core::result::Result<std::sync::mutex::MutexGuard<tokio::task::queue::RemoteQueue<tokio::runtime::basic_scheduler::SchedulerPriv>>, std::sys_common::poison::PoisonError<std::sync::mutex::MutexGuard<tokio::task::queue::RemoteQueue<tokio::runtime::basic_scheduler::SchedulerPriv>>>>", %"core::result::Result<std::sync::mutex::MutexGuard<tokio::task::queue::RemoteQueue<tokio::runtime::basic_scheduler::SchedulerPriv>>, std::sys_common::poison::PoisonError<std::sync::mutex::MutexGuard<tokio::task::queue::RemoteQueue<tokio::runtime::basic_scheduler::SchedulerPriv>>>>"* %_1, i64 0, i32 0, i64 0
  %_2 = load i64, i64* %0, align 8, !range !51
  %1 = icmp eq i64 %_2, 0
  %2 = getelementptr inbounds %"core::result::Result<std::sync::mutex::MutexGuard<tokio::task::queue::RemoteQueue<tokio::runtime::basic_scheduler::SchedulerPriv>>, std::sys_common::poison::PoisonError<std::sync::mutex::MutexGuard<tokio::task::queue::RemoteQueue<tokio::runtime::basic_scheduler::SchedulerPriv>>>>", %"core::result::Result<std::sync::mutex::MutexGuard<tokio::task::queue::RemoteQueue<tokio::runtime::basic_scheduler::SchedulerPriv>>, std::sys_common::poison::PoisonError<std::sync::mutex::MutexGuard<tokio::task::queue::RemoteQueue<tokio::runtime::basic_scheduler::SchedulerPriv>>>>"* %_1, i64 0, i32 2
  %3 = bitcast [2 x i64]* %2 to %"std::sync::mutex::Mutex<tokio::task::queue::RemoteQueue<tokio::runtime::basic_scheduler::SchedulerPriv>>"**
  %4 = load %"std::sync::mutex::Mutex<tokio::task::queue::RemoteQueue<tokio::runtime::basic_scheduler::SchedulerPriv>>"*, %"std::sync::mutex::Mutex<tokio::task::queue::RemoteQueue<tokio::runtime::basic_scheduler::SchedulerPriv>>"** %3, align 8, !nonnull !3
  %_5.i.i = getelementptr inbounds %"core::result::Result<std::sync::mutex::MutexGuard<tokio::task::queue::RemoteQueue<tokio::runtime::basic_scheduler::SchedulerPriv>>, std::sys_common::poison::PoisonError<std::sync::mutex::MutexGuard<tokio::task::queue::RemoteQueue<tokio::runtime::basic_scheduler::SchedulerPriv>>>>", %"core::result::Result<std::sync::mutex::MutexGuard<tokio::task::queue::RemoteQueue<tokio::runtime::basic_scheduler::SchedulerPriv>>, std::sys_common::poison::PoisonError<std::sync::mutex::MutexGuard<tokio::task::queue::RemoteQueue<tokio::runtime::basic_scheduler::SchedulerPriv>>>>"* %_1, i64 0, i32 2, i64 1
  %5 = bitcast i64* %_5.i.i to i8*
  %_5.val.i.i = load i8, i8* %5, align 8
  %_5.i.i.i = icmp eq i8 %_5.val.i.i, 0
  br i1 %1, label %bb2, label %bb3

bb1:                                              ; preds = %bb6.i.i.i.i, %bb3.i.i.i.i, %bb3, %bb6.i.i.i, %bb3.i.i.i, %bb2
  %6 = bitcast [2 x i64]* %2 to %"libc::unix::linux_like::linux::pthread_mutex_t"***
  %7 = load %"libc::unix::linux_like::linux::pthread_mutex_t"**, %"libc::unix::linux_like::linux::pthread_mutex_t"*** %6, align 8, !nonnull !3
  %_71.i.i = load %"libc::unix::linux_like::linux::pthread_mutex_t"*, %"libc::unix::linux_like::linux::pthread_mutex_t"** %7, align 8, !nonnull !3
  %8 = tail call i32 @pthread_mutex_unlock(%"libc::unix::linux_like::linux::pthread_mutex_t"* nonnull %_71.i.i) #9
  ret void

bb2:                                              ; preds = %start
  br i1 %_5.i.i.i, label %bb3.i.i.i, label %bb1

bb3.i.i.i:                                        ; preds = %bb2
  %9 = tail call zeroext i1 @_ZN3std9panicking9panicking17hb29bc5349f72a38fE()
  br i1 %9, label %bb6.i.i.i, label %bb1

bb6.i.i.i:                                        ; preds = %bb3.i.i.i
  %_6.i.i.i.i = getelementptr inbounds %"std::sync::mutex::Mutex<tokio::task::queue::RemoteQueue<tokio::runtime::basic_scheduler::SchedulerPriv>>", %"std::sync::mutex::Mutex<tokio::task::queue::RemoteQueue<tokio::runtime::basic_scheduler::SchedulerPriv>>"* %4, i64 0, i32 3, i32 0, i64 0
  store atomic i8 1, i8* %_6.i.i.i.i monotonic, align 1
  br label %bb1

bb3:                                              ; preds = %start
  br i1 %_5.i.i.i, label %bb3.i.i.i.i, label %bb1

bb3.i.i.i.i:                                      ; preds = %bb3
  %10 = tail call zeroext i1 @_ZN3std9panicking9panicking17hb29bc5349f72a38fE()
  br i1 %10, label %bb6.i.i.i.i, label %bb1

bb6.i.i.i.i:                                      ; preds = %bb3.i.i.i.i
  %_6.i.i.i.i.i = getelementptr inbounds %"std::sync::mutex::Mutex<tokio::task::queue::RemoteQueue<tokio::runtime::basic_scheduler::SchedulerPriv>>", %"std::sync::mutex::Mutex<tokio::task::queue::RemoteQueue<tokio::runtime::basic_scheduler::SchedulerPriv>>"* %4, i64 0, i32 3, i32 0, i64 0
  store atomic i8 1, i8* %_6.i.i.i.i.i monotonic, align 1
  br label %bb1
}

; Function Attrs: nonlazybind uwtable
define internal fastcc void @_ZN4core3ptr18real_drop_in_place17h2de24b7a29ebf508E(i64** nocapture readonly align 8 dereferenceable(8) %_1) unnamed_addr #1 {
start:
  %0 = bitcast i64** %_1 to {}**
  %1 = load {}*, {}** %0, align 8
  %2 = icmp eq {}* %1, null
  br i1 %2, label %bb1, label %bb2

bb1:                                              ; preds = %bb2, %start
  ret void

bb2:                                              ; preds = %start
  %3 = bitcast {}* %1 to i64*
  tail call void @_ZN5tokio4task3raw7RawTask9drop_task17h698abef7adc201bbE(i64* nonnull %3)
  br label %bb1
}

; Function Attrs: nounwind nonlazybind uwtable
define internal fastcc void @_ZN4core3ptr18real_drop_in_place17h314366b4417d5734E(%"alloc::vec::Vec<u8>"* nocapture readonly align 8 dereferenceable(24) %_1) unnamed_addr #5 personality i32 (i32, i32, i64, %"unwind::libunwind::_Unwind_Exception"*, %"unwind::libunwind::_Unwind_Context"*)* @rust_eh_personality {
bb4:
  %0 = getelementptr %"alloc::vec::Vec<u8>", %"alloc::vec::Vec<u8>"* %_1, i64 0, i32 1, i32 1
  %.idx4.val = load i64, i64* %0, align 8
  %_2.i.i.i.i = icmp eq i64 %.idx4.val, 0
  br i1 %_2.i.i.i.i, label %_ZN4core3ptr18real_drop_in_place17hfd3237406509f55eE.exit, label %bb4.i.i.i

bb4.i.i.i:                                        ; preds = %bb4
  %.idx = bitcast %"alloc::vec::Vec<u8>"* %_1 to i8**
  %.idx.val = load i8*, i8** %.idx, align 8
  tail call void @__rust_dealloc(i8* nonnull %.idx.val, i64 %.idx4.val, i64 1) #9
  br label %_ZN4core3ptr18real_drop_in_place17hfd3237406509f55eE.exit

_ZN4core3ptr18real_drop_in_place17hfd3237406509f55eE.exit: ; preds = %bb4.i.i.i, %bb4
  ret void
}

; Function Attrs: nonlazybind uwtable
define internal fastcc void @_ZN4core3ptr18real_drop_in_place17h31612d391bc71c78E(%"core::cell::UnsafeCell<tokio::util::pad::CachePadded<tokio::runtime::thread_pool::owned::Owned>>"* nocapture readonly align 128 dereferenceable(128) %_1) unnamed_addr #1 personality i32 (i32, i32, i64, %"unwind::libunwind::_Unwind_Exception"*, %"unwind::libunwind::_Unwind_Context"*)* @rust_eh_personality {
start:
  %0 = getelementptr inbounds %"core::cell::UnsafeCell<tokio::util::pad::CachePadded<tokio::runtime::thread_pool::owned::Owned>>", %"core::cell::UnsafeCell<tokio::util::pad::CachePadded<tokio::runtime::thread_pool::owned::Owned>>"* %_1, i64 0, i32 1, i32 1, i32 3
  %1 = bitcast %"tokio::runtime::thread_pool::queue::worker::Worker<tokio::runtime::thread_pool::shared::Shared>"* %0 to %"core::sync::atomic::AtomicUsize"**
  %self.val12.i.i.i.i.i = load %"core::sync::atomic::AtomicUsize"*, %"core::sync::atomic::AtomicUsize"** %1, align 8
  %_5.i.i.i.i.i.i = getelementptr inbounds %"core::sync::atomic::AtomicUsize", %"core::sync::atomic::AtomicUsize"* %self.val12.i.i.i.i.i, i64 0, i32 0, i64 0
  %2 = atomicrmw sub i64* %_5.i.i.i.i.i.i, i64 1 release
  %_2.i.i.i.i.i = icmp eq i64 %2, 1
  br i1 %_2.i.i.i.i.i, label %bb3.i.i.i.i.i, label %bb4.i.i.i

bb3.i.i.i.i.i:                                    ; preds = %start
  %3 = bitcast %"tokio::runtime::thread_pool::queue::worker::Worker<tokio::runtime::thread_pool::shared::Shared>"* %0 to i64**
  fence acquire
  invoke fastcc void @"_ZN5alloc4sync12Arc$LT$T$GT$9drop_slow17h27122a2f92d5b3e1E"(i64** nonnull align 8 dereferenceable(8) %3)
          to label %bb4.i.i.i unwind label %cleanup.i.i.i

bb4.i.i.i:                                        ; preds = %bb3.i.i.i.i.i, %start
  %4 = getelementptr inbounds %"core::cell::UnsafeCell<tokio::util::pad::CachePadded<tokio::runtime::thread_pool::owned::Owned>>", %"core::cell::UnsafeCell<tokio::util::pad::CachePadded<tokio::runtime::thread_pool::owned::Owned>>"* %_1, i64 0, i32 1, i32 1, i32 3, i32 3
  %5 = bitcast i64** %4 to {}**
  %6 = load {}*, {}** %5, align 8
  %7 = icmp eq {}* %6, null
  br i1 %7, label %_ZN4core3ptr18real_drop_in_place17ha510dadaf4fb1602E.exit, label %bb2.i.i.i.i.i.i

bb2.i.i.i.i.i.i:                                  ; preds = %bb4.i.i.i
  %8 = bitcast {}* %6 to i64*
  tail call void @_ZN5tokio4task3raw7RawTask9drop_task17h698abef7adc201bbE(i64* nonnull %8)
  br label %_ZN4core3ptr18real_drop_in_place17ha510dadaf4fb1602E.exit

cleanup.i.i.i:                                    ; preds = %bb3.i.i.i.i.i
  %9 = landingpad { i8*, i32 }
          cleanup
  %10 = getelementptr inbounds %"core::cell::UnsafeCell<tokio::util::pad::CachePadded<tokio::runtime::thread_pool::owned::Owned>>", %"core::cell::UnsafeCell<tokio::util::pad::CachePadded<tokio::runtime::thread_pool::owned::Owned>>"* %_1, i64 0, i32 1, i32 1, i32 3, i32 3
  tail call fastcc void @_ZN4core3ptr18real_drop_in_place17h2de24b7a29ebf508E(i64** nonnull align 8 dereferenceable(8) %10) #17
  resume { i8*, i32 } %9

_ZN4core3ptr18real_drop_in_place17ha510dadaf4fb1602E.exit: ; preds = %bb2.i.i.i.i.i.i, %bb4.i.i.i
  ret void
}

; Function Attrs: nonlazybind uwtable
define internal fastcc void @_ZN4core3ptr18real_drop_in_place17h34cd177c93b7022dE(i64** nocapture readonly align 8 dereferenceable(8) %_1) unnamed_addr #1 {
start:
  %0 = bitcast i64** %_1 to {}**
  %1 = load {}*, {}** %0, align 8
  %2 = icmp eq {}* %1, null
  br i1 %2, label %bb1, label %bb2

bb1:                                              ; preds = %bb3.i.i.i, %bb2, %start
  ret void

bb2:                                              ; preds = %start
  %_5.i.i.i.i = bitcast {}* %1 to i64*
  %3 = atomicrmw sub i64* %_5.i.i.i.i, i64 1 release
  %_2.i.i.i = icmp eq i64 %3, 1
  br i1 %_2.i.i.i, label %bb3.i.i.i, label %bb1

bb3.i.i.i:                                        ; preds = %bb2
  fence acquire
  tail call fastcc void @"_ZN5alloc4sync12Arc$LT$T$GT$9drop_slow17he590ba7b80be8f2aE"(i64** nonnull align 8 dereferenceable(8) %_1)
  br label %bb1
}

; Function Attrs: nounwind nonlazybind uwtable
define internal fastcc void @_ZN4core3ptr18real_drop_in_place17h34e8b2af0c545c8bE(%"std::sync::mutex::Mutex<()>"* nocapture readonly align 8 dereferenceable(16) %_1) unnamed_addr #5 personality i32 (i32, i32, i64, %"unwind::libunwind::_Unwind_Exception"*, %"unwind::libunwind::_Unwind_Context"*)* @rust_eh_personality {
bb4:
  %0 = bitcast %"std::sync::mutex::Mutex<()>"* %_1 to %"libc::unix::linux_like::linux::pthread_mutex_t"**
  %_21.i = load %"libc::unix::linux_like::linux::pthread_mutex_t"*, %"libc::unix::linux_like::linux::pthread_mutex_t"** %0, align 8, !nonnull !3
  %1 = tail call i32 @pthread_mutex_destroy(%"libc::unix::linux_like::linux::pthread_mutex_t"* nonnull %_21.i) #9
  %2 = bitcast %"std::sync::mutex::Mutex<()>"* %_1 to i8**
  %3 = load i8*, i8** %2, align 8, !nonnull !3
  tail call void @__rust_dealloc(i8* nonnull %3, i64 40, i64 8) #9
  ret void
}

; Function Attrs: nonlazybind uwtable
define internal fastcc void @_ZN4core3ptr18real_drop_in_place17h3cd02a9edc568febE(%"core::result::Result<(), tokio::task::error::JoinError>"* nocapture readonly align 8 dereferenceable(40) %_1) unnamed_addr #1 personality i32 (i32, i32, i64, %"unwind::libunwind::_Unwind_Exception"*, %"unwind::libunwind::_Unwind_Context"*)* @rust_eh_personality {
start:
  %0 = getelementptr inbounds %"core::result::Result<(), tokio::task::error::JoinError>", %"core::result::Result<(), tokio::task::error::JoinError>"* %_1, i64 0, i32 0, i64 0
  %_2 = load i64, i64* %0, align 8, !range !51
  %1 = icmp eq i64 %_2, 0
  br i1 %1, label %bb1, label %bb2

bb1:                                              ; preds = %bb4.i.i.i.i.i.i, %bb3.i.i.i.i.i, %bb2, %start
  ret void

bb2:                                              ; preds = %start
  %2 = getelementptr inbounds %"core::result::Result<(), tokio::task::error::JoinError>", %"core::result::Result<(), tokio::task::error::JoinError>"* %_1, i64 0, i32 2
  %3 = bitcast [4 x i64]* %2 to {}**
  %4 = load {}*, {}** %3, align 8
  %5 = icmp eq {}* %4, null
  br i1 %5, label %bb1, label %bb2.i.i

bb2.i.i:                                          ; preds = %bb2
  %6 = bitcast {}* %4 to %"libc::unix::linux_like::linux::pthread_mutex_t"*
  %7 = tail call i32 @pthread_mutex_destroy(%"libc::unix::linux_like::linux::pthread_mutex_t"* nonnull %6) #9
  %8 = bitcast [4 x i64]* %2 to i8**
  %9 = load i8*, i8** %8, align 8, !nonnull !3
  tail call void @__rust_dealloc(i8* nonnull %9, i64 40, i64 8) #9
  %10 = getelementptr inbounds %"core::result::Result<(), tokio::task::error::JoinError>", %"core::result::Result<(), tokio::task::error::JoinError>"* %_1, i64 0, i32 2, i64 2
  %11 = bitcast i64* %10 to {}**
  %12 = load {}*, {}** %11, align 8, !nonnull !3
  %13 = getelementptr inbounds %"core::result::Result<(), tokio::task::error::JoinError>", %"core::result::Result<(), tokio::task::error::JoinError>"* %_1, i64 0, i32 2, i64 3
  %14 = bitcast i64* %13 to i64**
  %15 = bitcast i64* %13 to void ({}*)***
  %16 = load void ({}*)**, void ({}*)*** %15, align 8, !nonnull !3
  %17 = load void ({}*)*, void ({}*)** %16, align 8, !invariant.load !3, !nonnull !3
  invoke void %17({}* nonnull align 1 %12)
          to label %bb3.i.i.i.i.i unwind label %cleanup.i.i.i.i.i

bb3.i.i.i.i.i:                                    ; preds = %bb2.i.i
  %18 = load i64*, i64** %14, align 8, !nonnull !3
  %19 = getelementptr inbounds i64, i64* %18, i64 1
  %20 = load i64, i64* %19, align 8, !invariant.load !3, !alias.scope !62
  %_10.i.i.i.i.i.i = icmp eq i64 %20, 0
  br i1 %_10.i.i.i.i.i.i, label %bb1, label %bb4.i.i.i.i.i.i

bb4.i.i.i.i.i.i:                                  ; preds = %bb3.i.i.i.i.i
  %21 = bitcast i64* %10 to i8**
  %22 = load i8*, i8** %21, align 8, !nonnull !3
  %23 = getelementptr inbounds i64, i64* %18, i64 2
  %24 = load i64, i64* %23, align 8, !invariant.load !3, !alias.scope !62
  tail call void @__rust_dealloc(i8* nonnull %22, i64 %20, i64 %24) #9, !noalias !62
  br label %bb1

cleanup.i.i.i.i.i:                                ; preds = %bb2.i.i
  %25 = landingpad { i8*, i32 }
          cleanup
  %26 = bitcast i64* %10 to i8**
  %27 = load i8*, i8** %26, align 8, !nonnull !3
  %28 = load i64*, i64** %14, align 8, !nonnull !3
  tail call fastcc void @_ZN5alloc5alloc8box_free17h39766183111e1fbdE(i8* nonnull %27, i64* noalias nonnull readonly align 8 dereferenceable(24) %28) #17
  resume { i8*, i32 } %25
}

; Function Attrs: nonlazybind uwtable
define internal fastcc void @_ZN4core3ptr18real_drop_in_place17h3fc5e9ef977b7cf0E(%"alloc::collections::vec_deque::VecDeque<tokio::task::Task<tokio::runtime::basic_scheduler::SchedulerPriv>>"* nocapture readonly align 8 dereferenceable(32) %_1) unnamed_addr #1 personality i32 (i32, i32, i64, %"unwind::libunwind::_Unwind_Exception"*, %"unwind::libunwind::_Unwind_Context"*)* @rust_eh_personality {
start:
  %_back_dropper.i = alloca { i64*, i64 }, align 8
  %0 = getelementptr inbounds %"alloc::collections::vec_deque::VecDeque<tokio::task::Task<tokio::runtime::basic_scheduler::SchedulerPriv>>", %"alloc::collections::vec_deque::VecDeque<tokio::task::Task<tokio::runtime::basic_scheduler::SchedulerPriv>>"* %_1, i64 0, i32 3
  %head.i.i = load i64, i64* %0, align 8, !noalias !65
  %1 = getelementptr inbounds %"alloc::collections::vec_deque::VecDeque<tokio::task::Task<tokio::runtime::basic_scheduler::SchedulerPriv>>", %"alloc::collections::vec_deque::VecDeque<tokio::task::Task<tokio::runtime::basic_scheduler::SchedulerPriv>>"* %_1, i64 0, i32 0, i64 0
  %tail.i.i = load i64, i64* %1, align 8, !noalias !65
  %_2.idx.i.i.i.i = getelementptr %"alloc::collections::vec_deque::VecDeque<tokio::task::Task<tokio::runtime::basic_scheduler::SchedulerPriv>>", %"alloc::collections::vec_deque::VecDeque<tokio::task::Task<tokio::runtime::basic_scheduler::SchedulerPriv>>"* %_1, i64 0, i32 5, i32 0
  %2 = bitcast i64** %_2.idx.i.i.i.i to [0 x i64*]**
  %_2.idx.val1.i1.i.i.i = load [0 x i64*]*, [0 x i64*]** %2, align 8, !alias.scope !68, !noalias !65
  %_4.idx.i.i.i.i = getelementptr %"alloc::collections::vec_deque::VecDeque<tokio::task::Task<tokio::runtime::basic_scheduler::SchedulerPriv>>", %"alloc::collections::vec_deque::VecDeque<tokio::task::Task<tokio::runtime::basic_scheduler::SchedulerPriv>>"* %_1, i64 0, i32 5, i32 1
  %_4.idx.val.i.i.i.i = load i64, i64* %_4.idx.i.i.i.i, align 8, !alias.scope !71, !noalias !65
  %contiguous.i.i.i = icmp ult i64 %head.i.i, %tail.i.i
  br i1 %contiguous.i.i.i, label %bb2.i.i.i, label %bb1.i.i.i.i.i.i

bb2.i.i.i:                                        ; preds = %start
  %_8.i.i.i.i.i = icmp ult i64 %_4.idx.val.i.i.i.i, %tail.i.i
  br i1 %_8.i.i.i.i.i, label %bb4.i.i.i.i.i, label %"_ZN5alloc11collections9vec_deque17VecDeque$LT$T$GT$13as_mut_slices17hde81b29a20c22104E.exit.i"

bb4.i.i.i.i.i:                                    ; preds = %bb2.i.i.i
  invoke void @_ZN4core9panicking5panic17hf3b2e3f8bf85ebd1E([0 x i8]* noalias nonnull readonly align 1 bitcast (<{ [28 x i8] }>* @anon.112aa5216417f3e30cbfa40815f3b444.7 to [0 x i8]*), i64 28, %"core::panic::Location"* noalias readonly align 8 dereferenceable(24) bitcast (<{ i8*, [16 x i8] }>* @anon.112aa5216417f3e30cbfa40815f3b444.6 to %"core::panic::Location"*))
          to label %.noexc unwind label %cleanup.loopexit.split-lp

.noexc:                                           ; preds = %bb4.i.i.i.i.i
  unreachable

bb1.i.i.i.i.i.i:                                  ; preds = %start
  %_9.i.i.i.i.i.i = icmp ult i64 %_4.idx.val.i.i.i.i, %head.i.i
  br i1 %_9.i.i.i.i.i.i, label %bb5.i.i.i.i.i.i, label %"_ZN5alloc11collections9vec_deque17VecDeque$LT$T$GT$13as_mut_slices17hde81b29a20c22104E.exit.i"

bb5.i.i.i.i.i.i:                                  ; preds = %bb1.i.i.i.i.i.i
  invoke void @_ZN4core5slice20slice_index_len_fail17ha58ce2526532f1e6E(i64 %head.i.i, i64 %_4.idx.val.i.i.i.i)
          to label %.noexc7 unwind label %cleanup.loopexit.split-lp

.noexc7:                                          ; preds = %bb5.i.i.i.i.i.i
  unreachable

"_ZN5alloc11collections9vec_deque17VecDeque$LT$T$GT$13as_mut_slices17hde81b29a20c22104E.exit.i": ; preds = %bb1.i.i.i.i.i.i, %bb2.i.i.i
  %_4.sroa.11.0.i = phi i64 [ 0, %bb1.i.i.i.i.i.i ], [ %head.i.i, %bb2.i.i.i ]
  %_4.idx.val.i.i.i.pn.i = phi i64 [ %head.i.i, %bb1.i.i.i.i.i.i ], [ %_4.idx.val.i.i.i.i, %bb2.i.i.i ]
  %_4.sroa.0.0.in.i = getelementptr inbounds [0 x i64*], [0 x i64*]* %_2.idx.val1.i1.i.i.i, i64 0, i64 %tail.i.i
  %_4.sroa.8.0.i = ptrtoint [0 x i64*]* %_2.idx.val1.i1.i.i.i to i64
  %3 = bitcast { i64*, i64 }* %_back_dropper.i to i8*
  call void @llvm.lifetime.start.p0i8(i64 16, i8* nonnull %3)
  %4 = bitcast { i64*, i64 }* %_back_dropper.i to i64*
  store i64 %_4.sroa.8.0.i, i64* %4, align 8
  %5 = getelementptr inbounds { i64*, i64 }, { i64*, i64 }* %_back_dropper.i, i64 0, i32 1
  store i64 %_4.sroa.11.0.i, i64* %5, align 8
  %6 = getelementptr inbounds [0 x i64*], [0 x i64*]* %_2.idx.val1.i1.i.i.i, i64 0, i64 %_4.idx.val.i.i.i.pn.i
  br label %bb11.i.i6.i

bb8.i.i.i:                                        ; preds = %cleanup.i.i.i, %.noexc.i
  %_9.011.i.i.i = phi i64** [ %7, %.noexc.i ], [ %8, %cleanup.i.i.i ]
  %7 = getelementptr inbounds i64*, i64** %_9.011.i.i.i, i64 1
  %_9.0.val.i.i.i = load i64*, i64** %_9.011.i.i.i, align 8
  invoke fastcc void @_ZN4core3ptr18real_drop_in_place17h032bb3b7232478c2E(i64* %_9.0.val.i.i.i) #17
          to label %.noexc.i unwind label %cleanup.i

.noexc.i:                                         ; preds = %bb8.i.i.i
  %_12.i.i.i = icmp eq i64** %7, %6
  br i1 %_12.i.i.i, label %cleanup.body.i, label %bb8.i.i.i

bb10.i.i.i:                                       ; preds = %bb11.i.i6.i
  %8 = getelementptr inbounds i64*, i64** %_9.1.i.i.i, i64 1
  %_9.1.val.i.i.i = load i64*, i64** %_9.1.i.i.i, align 8
  invoke void @_ZN5tokio4task3raw7RawTask9drop_task17h698abef7adc201bbE(i64* nonnull %_9.1.val.i.i.i)
          to label %bb11.i.i6.i unwind label %cleanup.i.i.i

bb11.i.i6.i:                                      ; preds = %bb10.i.i.i, %"_ZN5alloc11collections9vec_deque17VecDeque$LT$T$GT$13as_mut_slices17hde81b29a20c22104E.exit.i"
  %_9.1.i.i.i = phi i64** [ %_4.sroa.0.0.in.i, %"_ZN5alloc11collections9vec_deque17VecDeque$LT$T$GT$13as_mut_slices17hde81b29a20c22104E.exit.i" ], [ %8, %bb10.i.i.i ]
  %_14.i.i.i = icmp eq i64** %_9.1.i.i.i, %6
  br i1 %_14.i.i.i, label %bb3.i, label %bb10.i.i.i

cleanup.i.i.i:                                    ; preds = %bb10.i.i.i
  %9 = landingpad { i8*, i32 }
          cleanup
  %_1210.i.i.i = icmp eq i64** %8, %6
  br i1 %_1210.i.i.i, label %cleanup.body.i, label %bb8.i.i.i

bb3.i:                                            ; preds = %bb11.i.i6.i
  %10 = getelementptr inbounds [0 x i64*], [0 x i64*]* %_2.idx.val1.i1.i.i.i, i64 0, i64 0
  %11 = getelementptr inbounds [0 x i64*], [0 x i64*]* %_2.idx.val1.i1.i.i.i, i64 0, i64 %_4.sroa.11.0.i
  br label %bb11.i.i.i.i.i

bb8.i.i.i.i.i:                                    ; preds = %cleanup.i.i.i.i.i, %.noexc8
  %_9.011.i.i.i.i.i = phi i64** [ %12, %.noexc8 ], [ %13, %cleanup.i.i.i.i.i ]
  %12 = getelementptr inbounds i64*, i64** %_9.011.i.i.i.i.i, i64 1
  %_9.0.val.i.i.i.i.i = load i64*, i64** %_9.011.i.i.i.i.i, align 8
  invoke fastcc void @_ZN4core3ptr18real_drop_in_place17h032bb3b7232478c2E(i64* %_9.0.val.i.i.i.i.i) #17
          to label %.noexc8 unwind label %cleanup.loopexit

.noexc8:                                          ; preds = %bb8.i.i.i.i.i
  %_12.i.i.i.i.i = icmp eq i64** %12, %11
  br i1 %_12.i.i.i.i.i, label %cleanup.body, label %bb8.i.i.i.i.i

bb10.i.i.i.i.i:                                   ; preds = %bb11.i.i.i.i.i
  %13 = getelementptr inbounds i64*, i64** %_9.1.i.i.i.i.i, i64 1
  %_9.1.val.i.i.i.i.i = load i64*, i64** %_9.1.i.i.i.i.i, align 8
  invoke void @_ZN5tokio4task3raw7RawTask9drop_task17h698abef7adc201bbE(i64* nonnull %_9.1.val.i.i.i.i.i)
          to label %bb11.i.i.i.i.i unwind label %cleanup.i.i.i.i.i

bb11.i.i.i.i.i:                                   ; preds = %bb10.i.i.i.i.i, %bb3.i
  %_9.1.i.i.i.i.i = phi i64** [ %10, %bb3.i ], [ %13, %bb10.i.i.i.i.i ]
  %_14.i.i.i.i.i = icmp eq i64** %_9.1.i.i.i.i.i, %11
  br i1 %_14.i.i.i.i.i, label %bb4, label %bb10.i.i.i.i.i

cleanup.i.i.i.i.i:                                ; preds = %bb10.i.i.i.i.i
  %14 = landingpad { i8*, i32 }
          cleanup
  %_1210.i.i.i.i.i = icmp eq i64** %13, %11
  br i1 %_1210.i.i.i.i.i, label %cleanup.body, label %bb8.i.i.i.i.i

cleanup.i:                                        ; preds = %bb8.i.i.i
  %15 = landingpad { i8*, i32 }
          cleanup
  br label %cleanup.body.i

cleanup.body.i:                                   ; preds = %cleanup.i, %cleanup.i.i.i, %.noexc.i
  %eh.lpad-body.i = phi { i8*, i32 } [ %15, %cleanup.i ], [ %9, %cleanup.i.i.i ], [ %9, %.noexc.i ]
  invoke fastcc void @_ZN4core3ptr18real_drop_in_place17h0c5e93ad2f336c64E({ i64*, i64 }* nonnull align 8 dereferenceable(16) %_back_dropper.i) #17
          to label %cleanup.body unwind label %cleanup.loopexit.split-lp

bb4:                                              ; preds = %bb11.i.i.i.i.i
  call void @llvm.lifetime.end.p0i8(i64 16, i8* nonnull %3)
  %.idx4.val = load i64, i64* %_4.idx.i.i.i.i, align 8
  %_2.i.i.i.i = icmp eq i64 %.idx4.val, 0
  br i1 %_2.i.i.i.i, label %_ZN4core3ptr18real_drop_in_place17haac8888775c883d4E.exit, label %bb4.i.i.i

bb4.i.i.i:                                        ; preds = %bb4
  %16 = getelementptr inbounds %"alloc::collections::vec_deque::VecDeque<tokio::task::Task<tokio::runtime::basic_scheduler::SchedulerPriv>>", %"alloc::collections::vec_deque::VecDeque<tokio::task::Task<tokio::runtime::basic_scheduler::SchedulerPriv>>"* %_1, i64 0, i32 5
  %17 = bitcast { i64*, i64 }* %16 to i8**
  %.idx.val10 = load i8*, i8** %17, align 8
  %size.i.i.i.i = shl i64 %.idx4.val, 3
  tail call void @__rust_dealloc(i8* nonnull %.idx.val10, i64 %size.i.i.i.i, i64 8) #9
  br label %_ZN4core3ptr18real_drop_in_place17haac8888775c883d4E.exit

_ZN4core3ptr18real_drop_in_place17haac8888775c883d4E.exit: ; preds = %bb4.i.i.i, %bb4
  ret void

cleanup.loopexit:                                 ; preds = %bb8.i.i.i.i.i
  %lpad.loopexit = landingpad { i8*, i32 }
          cleanup
  br label %cleanup.body

cleanup.loopexit.split-lp:                        ; preds = %cleanup.body.i, %bb5.i.i.i.i.i.i, %bb4.i.i.i.i.i
  %lpad.loopexit.split-lp = landingpad { i8*, i32 }
          cleanup
  br label %cleanup.body

cleanup.body:                                     ; preds = %cleanup.loopexit.split-lp, %cleanup.loopexit, %cleanup.body.i, %cleanup.i.i.i.i.i, %.noexc8
  %eh.lpad-body = phi { i8*, i32 } [ %14, %cleanup.i.i.i.i.i ], [ %eh.lpad-body.i, %cleanup.body.i ], [ %lpad.loopexit, %cleanup.loopexit ], [ %lpad.loopexit.split-lp, %cleanup.loopexit.split-lp ], [ %14, %.noexc8 ]
  %.idx5.val = load i64*, i64** %_2.idx.i.i.i.i, align 8
  %.idx6.val = load i64, i64* %_4.idx.i.i.i.i, align 8
  tail call fastcc void @_ZN4core3ptr18real_drop_in_place17h90d8552239534afaE(i64* %.idx5.val, i64 %.idx6.val) #17
  resume { i8*, i32 } %eh.lpad-body
}

; Function Attrs: nounwind nonlazybind uwtable
define internal fastcc void @_ZN4core3ptr18real_drop_in_place17h42b179ded7dcfffcE(%"tokio::io::util::read_line::ReadLine<tokio::io::util::buf_reader::BufReader<tokio::net::tcp::split::ReadHalf>>"* nocapture readonly align 8 dereferenceable(48) %_1) unnamed_addr #5 personality i32 (i32, i32, i64, %"unwind::libunwind::_Unwind_Exception"*, %"unwind::libunwind::_Unwind_Context"*)* @rust_eh_personality {
start:
  %0 = getelementptr %"tokio::io::util::read_line::ReadLine<tokio::io::util::buf_reader::BufReader<tokio::net::tcp::split::ReadHalf>>", %"tokio::io::util::read_line::ReadLine<tokio::io::util::buf_reader::BufReader<tokio::net::tcp::split::ReadHalf>>"* %_1, i64 0, i32 5, i32 1, i32 1
  %.idx4.val.i = load i64, i64* %0, align 8
  %_2.i.i.i.i.i = icmp eq i64 %.idx4.val.i, 0
  br i1 %_2.i.i.i.i.i, label %_ZN4core3ptr18real_drop_in_place17h314366b4417d5734E.exit, label %bb4.i.i.i.i

bb4.i.i.i.i:                                      ; preds = %start
  %1 = getelementptr inbounds %"tokio::io::util::read_line::ReadLine<tokio::io::util::buf_reader::BufReader<tokio::net::tcp::split::ReadHalf>>", %"tokio::io::util::read_line::ReadLine<tokio::io::util::buf_reader::BufReader<tokio::net::tcp::split::ReadHalf>>"* %_1, i64 0, i32 5
  %.idx.i = bitcast %"alloc::vec::Vec<u8>"* %1 to i8**
  %.idx.val.i = load i8*, i8** %.idx.i, align 8
  tail call void @__rust_dealloc(i8* nonnull %.idx.val.i, i64 %.idx4.val.i, i64 1) #9
  br label %_ZN4core3ptr18real_drop_in_place17h314366b4417d5734E.exit

_ZN4core3ptr18real_drop_in_place17h314366b4417d5734E.exit: ; preds = %bb4.i.i.i.i, %start
  ret void
}

; Function Attrs: nonlazybind uwtable
define internal fastcc void @_ZN4core3ptr18real_drop_in_place17h42c5a505e750659bE(i64** nocapture readonly align 8 dereferenceable(8) %_1) unnamed_addr #1 {
start:
  %0 = bitcast i64** %_1 to {}**
  %1 = load {}*, {}** %0, align 8
  %2 = icmp eq {}* %1, null
  br i1 %2, label %bb1, label %bb2

bb1:                                              ; preds = %bb3.i.i, %bb2, %start
  ret void

bb2:                                              ; preds = %start
  %_5.i.i.i = bitcast {}* %1 to i64*
  %3 = atomicrmw sub i64* %_5.i.i.i, i64 1 release
  %_2.i.i = icmp eq i64 %3, 1
  br i1 %_2.i.i, label %bb3.i.i, label %bb1

bb3.i.i:                                          ; preds = %bb2
  fence acquire
  tail call fastcc void @"_ZN5alloc4sync12Arc$LT$T$GT$9drop_slow17hdf925423c13282e1E"(i64** nonnull align 8 dereferenceable(8) %_1)
  br label %bb1
}

; Function Attrs: nonlazybind uwtable
define internal fastcc void @_ZN4core3ptr18real_drop_in_place17h455108c36d4b96e1E(%"core::ops::generator::GeneratorState<(), core::result::Result<(), alloc::boxed::Box<std::error::Error>>>"* nocapture readonly align 8 dereferenceable(24) %_1) unnamed_addr #1 personality i32 (i32, i32, i64, %"unwind::libunwind::_Unwind_Exception"*, %"unwind::libunwind::_Unwind_Context"*)* @rust_eh_personality {
start:
  %0 = getelementptr inbounds %"core::ops::generator::GeneratorState<(), core::result::Result<(), alloc::boxed::Box<std::error::Error>>>", %"core::ops::generator::GeneratorState<(), core::result::Result<(), alloc::boxed::Box<std::error::Error>>>"* %_1, i64 0, i32 0, i64 0
  %_2 = load i64, i64* %0, align 8, !range !51
  %1 = icmp eq i64 %_2, 0
  br i1 %1, label %bb1, label %bb2

bb1:                                              ; preds = %bb4.i.i.i, %bb3.i.i, %bb2, %start
  ret void

bb2:                                              ; preds = %start
  %2 = getelementptr inbounds %"core::ops::generator::GeneratorState<(), core::result::Result<(), alloc::boxed::Box<std::error::Error>>>", %"core::ops::generator::GeneratorState<(), core::result::Result<(), alloc::boxed::Box<std::error::Error>>>"* %_1, i64 0, i32 2
  %3 = bitcast [2 x i64]* %2 to {}**
  %4 = load {}*, {}** %3, align 8
  %5 = icmp eq {}* %4, null
  br i1 %5, label %bb1, label %bb2.i

bb2.i:                                            ; preds = %bb2
  %6 = getelementptr inbounds %"core::ops::generator::GeneratorState<(), core::result::Result<(), alloc::boxed::Box<std::error::Error>>>", %"core::ops::generator::GeneratorState<(), core::result::Result<(), alloc::boxed::Box<std::error::Error>>>"* %_1, i64 0, i32 2, i64 1
  %7 = bitcast i64* %6 to void ({}*)***
  %8 = load void ({}*)**, void ({}*)*** %7, align 8, !nonnull !3
  %9 = load void ({}*)*, void ({}*)** %8, align 8, !invariant.load !3, !nonnull !3
  invoke void %9({}* nonnull align 1 %4)
          to label %bb3.i.i unwind label %cleanup.i.i

bb3.i.i:                                          ; preds = %bb2.i
  %10 = bitcast i64* %6 to i64**
  %11 = load i64*, i64** %10, align 8, !nonnull !3
  %12 = getelementptr inbounds i64, i64* %11, i64 1
  %13 = load i64, i64* %12, align 8, !invariant.load !3, !alias.scope !74
  %_10.i.i.i = icmp eq i64 %13, 0
  br i1 %_10.i.i.i, label %bb1, label %bb4.i.i.i

bb4.i.i.i:                                        ; preds = %bb3.i.i
  %14 = bitcast [2 x i64]* %2 to i8**
  %15 = load i8*, i8** %14, align 8, !nonnull !3
  %16 = getelementptr inbounds i64, i64* %11, i64 2
  %17 = load i64, i64* %16, align 8, !invariant.load !3, !alias.scope !74
  tail call void @__rust_dealloc(i8* nonnull %15, i64 %13, i64 %17) #9, !noalias !74
  br label %bb1

cleanup.i.i:                                      ; preds = %bb2.i
  %18 = landingpad { i8*, i32 }
          cleanup
  %19 = bitcast [2 x i64]* %2 to i8**
  %20 = load i8*, i8** %19, align 8, !nonnull !3
  %21 = bitcast i64* %6 to i64**
  %22 = load i64*, i64** %21, align 8, !nonnull !3
  tail call fastcc void @_ZN5alloc5alloc8box_free17h39766183111e1fbdE(i8* nonnull %20, i64* noalias nonnull readonly align 8 dereferenceable(24) %22) #17
  resume { i8*, i32 } %18
}

; Function Attrs: nonlazybind uwtable
define internal fastcc void @_ZN4core3ptr18real_drop_in_place17h466fb76dfe79443cE(%"std::sync::mutex::Mutex<tokio::task::queue::RemoteQueue<tokio::runtime::basic_scheduler::SchedulerPriv>>"* nocapture readonly align 8 dereferenceable(56) %_1) unnamed_addr #1 personality i32 (i32, i32, i64, %"unwind::libunwind::_Unwind_Exception"*, %"unwind::libunwind::_Unwind_Context"*)* @rust_eh_personality {
bb5:
  %0 = bitcast %"std::sync::mutex::Mutex<tokio::task::queue::RemoteQueue<tokio::runtime::basic_scheduler::SchedulerPriv>>"* %_1 to %"libc::unix::linux_like::linux::pthread_mutex_t"**
  %_21.i = load %"libc::unix::linux_like::linux::pthread_mutex_t"*, %"libc::unix::linux_like::linux::pthread_mutex_t"** %0, align 8, !nonnull !3
  %1 = tail call i32 @pthread_mutex_destroy(%"libc::unix::linux_like::linux::pthread_mutex_t"* nonnull %_21.i) #9
  %2 = bitcast %"std::sync::mutex::Mutex<tokio::task::queue::RemoteQueue<tokio::runtime::basic_scheduler::SchedulerPriv>>"* %_1 to i8**
  %3 = load i8*, i8** %2, align 8, !nonnull !3
  tail call void @__rust_dealloc(i8* nonnull %3, i64 40, i64 8) #9
  %4 = getelementptr inbounds %"std::sync::mutex::Mutex<tokio::task::queue::RemoteQueue<tokio::runtime::basic_scheduler::SchedulerPriv>>", %"std::sync::mutex::Mutex<tokio::task::queue::RemoteQueue<tokio::runtime::basic_scheduler::SchedulerPriv>>"* %_1, i64 0, i32 5
  %5 = bitcast %"core::cell::UnsafeCell<tokio::task::queue::RemoteQueue<tokio::runtime::basic_scheduler::SchedulerPriv>>"* %4 to %"alloc::collections::vec_deque::VecDeque<tokio::task::Task<tokio::runtime::basic_scheduler::SchedulerPriv>>"*
  tail call fastcc void @_ZN4core3ptr18real_drop_in_place17h3fc5e9ef977b7cf0E(%"alloc::collections::vec_deque::VecDeque<tokio::task::Task<tokio::runtime::basic_scheduler::SchedulerPriv>>"* nonnull align 8 dereferenceable(32) %5)
  ret void
}

; Function Attrs: nonlazybind uwtable
define internal fastcc void @_ZN4core3ptr18real_drop_in_place17h47f721620558509eE(%"tokio::io::poll_evented::Inner"* align 8 dereferenceable(32) %_1) unnamed_addr #1 personality i32 (i32, i32, i64, %"unwind::libunwind::_Unwind_Exception"*, %"unwind::libunwind::_Unwind_Context"*)* @rust_eh_personality {
start:
  %0 = bitcast %"tokio::io::poll_evented::Inner"* %_1 to { i64*, i64 }*
  invoke void @"_ZN79_$LT$tokio..io..registration..Registration$u20$as$u20$core..ops..drop..Drop$GT$4drop17he0fe257dfb231b17E"({ i64*, i64 }* nonnull align 8 dereferenceable(16) %0)
          to label %bb4.i unwind label %cleanup.i

bb4.i:                                            ; preds = %start
  %1 = bitcast %"tokio::io::poll_evented::Inner"* %_1 to i64**
  %self.val3.i.i.i.i = load i64*, i64** %1, align 8
  %magicptr.i.i.i.i = ptrtoint i64* %self.val3.i.i.i.i to i64
  switch i64 %magicptr.i.i.i.i, label %bb3.i.i.i.i [
    i64 -1, label %_ZN4core3ptr18real_drop_in_place17h1bb71f698366d10fE.exit
    i64 0, label %_ZN4core3ptr18real_drop_in_place17h1bb71f698366d10fE.exit
  ]

bb3.i.i.i.i:                                      ; preds = %bb4.i
  %_9.i.i.i.i = getelementptr inbounds i64, i64* %self.val3.i.i.i.i, i64 1
  %2 = atomicrmw sub i64* %_9.i.i.i.i, i64 1 release
  %_7.i.i.i.i = icmp eq i64 %2, 1
  br i1 %_7.i.i.i.i, label %bb6.i.i.i.i, label %_ZN4core3ptr18real_drop_in_place17h1bb71f698366d10fE.exit

bb6.i.i.i.i:                                      ; preds = %bb3.i.i.i.i
  fence acquire
  %3 = bitcast %"tokio::io::poll_evented::Inner"* %_1 to i8**
  %_164.i.i.i.i = load i8*, i8** %3, align 8, !nonnull !3
  tail call void @__rust_dealloc(i8* nonnull %_164.i.i.i.i, i64 144, i64 8) #9
  br label %_ZN4core3ptr18real_drop_in_place17h1bb71f698366d10fE.exit

cleanup.i:                                        ; preds = %start
  %4 = landingpad { i8*, i32 }
          cleanup
  %5 = bitcast %"tokio::io::poll_evented::Inner"* %_1 to i64**
  tail call fastcc void @_ZN4core3ptr18real_drop_in_place17hf72921a7bb3322d2E(i64** nonnull align 8 dereferenceable(8) %5) #17
  resume { i8*, i32 } %4

_ZN4core3ptr18real_drop_in_place17h1bb71f698366d10fE.exit: ; preds = %bb6.i.i.i.i, %bb3.i.i.i.i, %bb4.i, %bb4.i
  ret void
}

; Function Attrs: nonlazybind uwtable
define internal fastcc void @_ZN4core3ptr18real_drop_in_place17h4b8193e59cd485a1E(%"tokio::sync::task::atomic_waker::AtomicWaker"* nocapture readonly align 8 dereferenceable(24) %_1) unnamed_addr #1 {
start:
  %0 = getelementptr inbounds %"tokio::sync::task::atomic_waker::AtomicWaker", %"tokio::sync::task::atomic_waker::AtomicWaker"* %_1, i64 0, i32 3, i32 1
  %1 = bitcast i64** %0 to {}**
  %2 = load {}*, {}** %1, align 8
  %3 = icmp eq {}* %2, null
  br i1 %3, label %_ZN4core3ptr18real_drop_in_place17ha637d94ffbd9b2f6E.exit, label %bb2.i.i.i

bb2.i.i.i:                                        ; preds = %start
  %4 = getelementptr inbounds %"tokio::sync::task::atomic_waker::AtomicWaker", %"tokio::sync::task::atomic_waker::AtomicWaker"* %_1, i64 0, i32 3
  %5 = bitcast {}* %2 to %"core::task::wake::RawWakerVTable"*
  %6 = getelementptr inbounds %"core::task::wake::RawWakerVTable", %"core::task::wake::RawWakerVTable"* %5, i64 0, i32 7
  %_2.i.i.i.i.i = load void ({}*)*, void ({}*)** %6, align 8, !nonnull !3
  %7 = bitcast { i8*, i64* }* %4 to {}**
  %_3.i.i.i.i.i = load {}*, {}** %7, align 8
  tail call void %_2.i.i.i.i.i({}* %_3.i.i.i.i.i)
  br label %_ZN4core3ptr18real_drop_in_place17ha637d94ffbd9b2f6E.exit

_ZN4core3ptr18real_drop_in_place17ha637d94ffbd9b2f6E.exit: ; preds = %bb2.i.i.i, %start
  ret void
}

; Function Attrs: nonlazybind uwtable
define internal fastcc void @_ZN4core3ptr18real_drop_in_place17h4f79d343c5965205E(i64** align 8 dereferenceable(8) %_1) unnamed_addr #1 {
start:
  tail call void @"_ZN115_$LT$tokio..runtime..basic_scheduler..BasicScheduler$LT$P$GT$..block_on..Guard$u20$as$u20$core..ops..drop..Drop$GT$4drop17hbbd208e653d590c4E"(i64** nonnull align 8 dereferenceable(8) %_1)
  ret void
}

; Function Attrs: nonlazybind uwtable
define internal fastcc void @_ZN4core3ptr18real_drop_in_place17h5154e662f80429f9E(%"tokio::net::addr::sealed::MaybeReady"* nocapture align 8 dereferenceable(40) %_1) unnamed_addr #1 personality i32 (i32, i32, i64, %"unwind::libunwind::_Unwind_Exception"*, %"unwind::libunwind::_Unwind_Context"*)* @rust_eh_personality {
start:
  %raw.i.i = alloca i64*, align 8
  %0 = getelementptr inbounds %"tokio::net::addr::sealed::MaybeReady", %"tokio::net::addr::sealed::MaybeReady"* %_1, i64 0, i32 0, i64 0
  %1 = load i32, i32* %0, align 8, !range !77
  %2 = icmp eq i32 %1, 0
  br i1 %2, label %bb1, label %bb2

bb1:                                              ; preds = %bb6.i.i, %bb5.i.i, %bb2, %start
  ret void

bb2:                                              ; preds = %start
  %3 = getelementptr inbounds %"tokio::net::addr::sealed::MaybeReady", %"tokio::net::addr::sealed::MaybeReady"* %_1, i64 0, i32 2, i64 1
  %4 = bitcast i32* %3 to i64**
  %5 = bitcast i32* %3 to i64*
  %6 = load i64*, i64** %4, align 8
  store i64 0, i64* %5, align 8
  %7 = icmp eq i64* %6, null
  br i1 %7, label %bb1, label %bb2.i.i

bb2.i.i:                                          ; preds = %bb2
  %8 = bitcast i64** %raw.i.i to i8*
  call void @llvm.lifetime.start.p0i8(i64 8, i8* nonnull %8)
  store i64* %6, i64** %raw.i.i, align 8
  %9 = call align 8 dereferenceable(48) %"tokio::task::core::Header"* @_ZN5tokio4task3raw7RawTask6header17h887b575297842f2aE(i64** noalias nonnull readonly align 8 dereferenceable(8) %raw.i.i)
  %_7.i.i = bitcast %"tokio::task::core::Header"* %9 to %"tokio::task::state::State"*
  %10 = call zeroext i1 @_ZN5tokio4task5state5State21drop_join_handle_fast17hda3cbd0e3b0dff84E(%"tokio::task::state::State"* nonnull align 8 dereferenceable(8) %_7.i.i)
  br i1 %10, label %bb6.i.i, label %bb5.i.i

bb5.i.i:                                          ; preds = %bb2.i.i
  %_11.i.i = load i64*, i64** %raw.i.i, align 8, !nonnull !3
  call void @_ZN5tokio4task3raw7RawTask21drop_join_handle_slow17h0a08c8ada2900777E(i64* nonnull %_11.i.i)
  call void @llvm.lifetime.end.p0i8(i64 8, i8* nonnull %8)
  br label %bb1

bb6.i.i:                                          ; preds = %bb2.i.i
  call void @llvm.lifetime.end.p0i8(i64 8, i8* nonnull %8)
  br label %bb1
}

; Function Attrs: nonlazybind uwtable
define internal fastcc void @_ZN4core3ptr18real_drop_in_place17h52b5450cfbc055ffE(%"tokio::net::tcp::stream::TcpStream"* align 8 dereferenceable(56) %_1) unnamed_addr #1 personality i32 (i32, i32, i64, %"unwind::libunwind::_Unwind_Exception"*, %"unwind::libunwind::_Unwind_Context"*)* @rust_eh_personality {
start:
  %_8.i.i.i = alloca %"std::io::error::Error", align 8
  %_4.i.i.i = alloca i64*, align 8
  %inner.i.i.i = alloca i64*, align 8
  %_6.i.i = alloca %"core::result::Result<(), std::io::error::Error>", align 8
  %io.i.i = alloca %"mio::net::tcp::TcpStream", align 8
  %_2.i.i = alloca %"core::option::Option<mio::net::tcp::TcpStream>", align 8
  %0 = bitcast %"core::option::Option<mio::net::tcp::TcpStream>"* %_2.i.i to i8*
  call void @llvm.lifetime.start.p0i8(i64 24, i8* nonnull %0)
  %z.i.i.i.sroa.0.0.tmp.sroa.0.0..sroa_cast3.i.i.i.i.sroa_idx.i.i.i.i = getelementptr inbounds %"tokio::net::tcp::stream::TcpStream", %"tokio::net::tcp::stream::TcpStream"* %_1, i64 0, i32 0, i64 0
  %z.i.i.i.sroa.0.0.copyload.i.i.i.i = load i64, i64* %z.i.i.i.sroa.0.0.tmp.sroa.0.0..sroa_cast3.i.i.i.i.sroa_idx.i.i.i.i, align 8, !noalias !78
  %1 = getelementptr inbounds %"tokio::net::tcp::stream::TcpStream", %"tokio::net::tcp::stream::TcpStream"* %_1, i64 0, i32 1, i32 1, i32 2
  %z.i.i.i.sroa.4.0.tmp.sroa.0.0..sroa_cast3.i.i.i.i.sroa_cast.i.i.i.i = bitcast [2 x i64]* %1 to i8*
  store i64 0, i64* %z.i.i.i.sroa.0.0.tmp.sroa.0.0..sroa_cast3.i.i.i.i.sroa_idx.i.i.i.i, align 8, !noalias !86
  %_3.sroa.0.0..sroa_idx3.i.i.i.i = getelementptr inbounds %"core::option::Option<mio::net::tcp::TcpStream>", %"core::option::Option<mio::net::tcp::TcpStream>"* %_2.i.i, i64 0, i32 0, i64 0
  store i64 %z.i.i.i.sroa.0.0.copyload.i.i.i.i, i64* %_3.sroa.0.0..sroa_idx3.i.i.i.i, align 8, !alias.scope !78
  %_3.sroa.6.0..sroa_idx8.i.i.i.i = getelementptr inbounds %"core::option::Option<mio::net::tcp::TcpStream>", %"core::option::Option<mio::net::tcp::TcpStream>"* %_2.i.i, i64 0, i32 2
  %_3.sroa.6.0..sroa_cast9.i.i.i.i = bitcast [2 x i64]* %_3.sroa.6.0..sroa_idx8.i.i.i.i to i8*
  call void @llvm.memcpy.p0i8.p0i8.i64(i8* nonnull align 8 %_3.sroa.6.0..sroa_cast9.i.i.i.i, i8* nonnull align 8 %z.i.i.i.sroa.4.0.tmp.sroa.0.0..sroa_cast3.i.i.i.i.sroa_cast.i.i.i.i, i64 16, i1 false) #9
  %2 = icmp eq i64 %z.i.i.i.sroa.0.0.copyload.i.i.i.i, 1
  br i1 %2, label %bb3.i.i, label %bb6.thread.i

bb6.thread.i:                                     ; preds = %start
  call void @llvm.lifetime.end.p0i8(i64 24, i8* nonnull %0)
  br label %bb5.i

bb1.i.i:                                          ; preds = %bb9.i.i, %bb5.i.i
  %3 = insertvalue { i8*, i32 } undef, i8* %.sroa.0.0.i.i, 0
  %4 = insertvalue { i8*, i32 } %3, i32 %.sroa.6.0.i.i, 1
  br label %cleanup.body.i

bb3.i.i:                                          ; preds = %start
  %5 = bitcast %"mio::net::tcp::TcpStream"* %io.i.i to i8*
  call void @llvm.lifetime.start.p0i8(i64 16, i8* nonnull %5)
  call void @llvm.memcpy.p0i8.p0i8.i64(i8* nonnull align 8 %5, i8* nonnull align 8 %_3.sroa.6.0..sroa_cast9.i.i.i.i, i64 16, i1 false)
  %6 = getelementptr inbounds %"core::result::Result<(), std::io::error::Error>", %"core::result::Result<(), std::io::error::Error>"* %_6.i.i, i64 0, i32 0, i64 0
  call void @llvm.lifetime.start.p0i8(i64 16, i8* nonnull %6)
  %7 = getelementptr inbounds %"tokio::net::tcp::stream::TcpStream", %"tokio::net::tcp::stream::TcpStream"* %_1, i64 0, i32 1, i32 3
  %8 = bitcast i64** %inner.i.i.i to i8*
  call void @llvm.lifetime.start.p0i8(i64 8, i8* nonnull %8), !noalias !87
  %9 = bitcast i64** %_4.i.i.i to i8*
  call void @llvm.lifetime.start.p0i8(i64 8, i8* nonnull %9), !noalias !87
  %_5.i.i.i = bitcast %"tokio::io::poll_evented::Inner"* %7 to i64**
  %10 = invoke i64* @_ZN5tokio2io6driver6Handle5inner17heb68f52174073405E(i64** noalias nonnull readonly align 8 dereferenceable(8) %_5.i.i.i)
          to label %.noexc.i.i unwind label %cleanup.i.i

.noexc.i.i:                                       ; preds = %bb3.i.i
  store i64* %10, i64** %_4.i.i.i, align 8, !noalias !87
  %11 = icmp eq i64* %10, null
  br i1 %11, label %bb3.i.i.i, label %bb5.i.i.i

bb1.i.i.i:                                        ; preds = %cleanup2.i.i.i, %cleanup.i.i.i
  %.sroa.0.0.i.i.i = phi i8* [ %19, %cleanup.i.i.i ], [ %22, %cleanup2.i.i.i ]
  %.sroa.6.0.i.i.i = phi i32 [ %20, %cleanup.i.i.i ], [ %23, %cleanup2.i.i.i ]
  %12 = insertvalue { i8*, i32 } undef, i8* %.sroa.0.0.i.i.i, 0
  %13 = insertvalue { i8*, i32 } %12, i32 %.sroa.6.0.i.i.i, 1
  br label %cleanup.body.i.i

bb3.i.i.i:                                        ; preds = %.noexc.i.i
  %14 = bitcast %"std::io::error::Error"* %_8.i.i.i to i8*
  call void @llvm.lifetime.start.p0i8(i64 16, i8* nonnull %14), !noalias !87
  %15 = invoke { {}*, [3 x i64]* } @"_ZN3std5error161_$LT$impl$u20$core..convert..From$LT$$RF$str$GT$$u20$for$u20$alloc..boxed..Box$LT$dyn$u20$std..error..Error$u2b$core..marker..Sync$u2b$core..marker..Send$GT$$GT$4from17h3380ca6fb4be57d1E"([0 x i8]* noalias nonnull readonly align 1 bitcast (<{ [12 x i8] }>* @anon.112aa5216417f3e30cbfa40815f3b444.13 to [0 x i8]*), i64 12)
          to label %.noexc.i.i.i unwind label %cleanup2.i.i.i, !noalias !87

.noexc.i.i.i:                                     ; preds = %bb3.i.i.i
  %_4.0.i.i.i.i = extractvalue { {}*, [3 x i64]* } %15, 0
  %_4.1.i.i.i.i = extractvalue { {}*, [3 x i64]* } %15, 1
  invoke void @_ZN3std2io5error5Error4_new17h9d3cc36308b63b32E(%"std::io::error::Error"* noalias nocapture nonnull sret dereferenceable(16) %_8.i.i.i, i8 16, {}* noalias nonnull align 1 %_4.0.i.i.i.i, [3 x i64]* noalias readonly align 8 dereferenceable(24) %_4.1.i.i.i.i)
          to label %_ZN4core3ptr18real_drop_in_place17h0b30e8d9d34d5f31E.exit.i.i.i unwind label %cleanup2.i.i.i, !noalias !87

bb5.i.i.i:                                        ; preds = %.noexc.i.i
  store i64* %10, i64** %inner.i.i.i, align 8, !noalias !87
  call void @llvm.lifetime.end.p0i8(i64 8, i8* nonnull %9), !noalias !87
  %_2.i.i.i.i = getelementptr inbounds i64, i64* %10, i64 2
  %16 = bitcast i64* %_2.i.i.i.i to %"tokio::io::driver::Inner"*
  %_13.0.i.i.i = bitcast %"mio::net::tcp::TcpStream"* %io.i.i to {}*
  invoke void @_ZN5tokio2io6driver5Inner17deregister_source17h6390581a88aedb6eE(%"core::result::Result<(), std::io::error::Error>"* noalias nocapture nonnull sret dereferenceable(16) %_6.i.i, %"tokio::io::driver::Inner"* nonnull align 8 dereferenceable(128) %16, {}* nonnull align 1 %_13.0.i.i.i, [3 x i64]* noalias readonly align 8 dereferenceable(24) bitcast ({ void (%"mio::net::tcp::TcpStream"*)*, i64, i64, void (%"core::result::Result<(), std::io::error::Error>"*, %"mio::net::tcp::TcpStream"*, %"mio::poll::Poll"*, i64, i64, i64)*, void (%"core::result::Result<(), std::io::error::Error>"*, %"mio::net::tcp::TcpStream"*, %"mio::poll::Poll"*, i64, i64, i64)*, void (%"core::result::Result<(), std::io::error::Error>"*, %"mio::net::tcp::TcpStream"*, %"mio::poll::Poll"*)* }* @vtable.b to [3 x i64]*))
          to label %bb12.i.i.i unwind label %cleanup.i.i.i

_ZN4core3ptr18real_drop_in_place17h0b30e8d9d34d5f31E.exit.i.i.i: ; preds = %.noexc.i.i.i
  call void @llvm.memcpy.p0i8.p0i8.i64(i8* nonnull align 8 %6, i8* nonnull align 8 %14, i64 16, i1 false)
  call void @llvm.lifetime.end.p0i8(i64 16, i8* nonnull %14), !noalias !87
  call void @llvm.lifetime.end.p0i8(i64 8, i8* nonnull %9), !noalias !87
  br label %bb4.i.i

bb12.i.i.i:                                       ; preds = %bb5.i.i.i
  %17 = atomicrmw sub i64* %10, i64 1 release, !noalias !87
  %_2.i.i.i.i.i = icmp eq i64 %17, 1
  br i1 %_2.i.i.i.i.i, label %bb3.i.i.i.i.i, label %bb4.i.i

bb3.i.i.i.i.i:                                    ; preds = %bb12.i.i.i
  fence acquire
  invoke fastcc void @"_ZN5alloc4sync12Arc$LT$T$GT$9drop_slow17h5d84505ff6cb1dc8E"(i64** nonnull align 8 dereferenceable(8) %inner.i.i.i)
          to label %bb4.i.i unwind label %cleanup.i.i

cleanup.i.i.i:                                    ; preds = %bb5.i.i.i
  %18 = landingpad { i8*, i32 }
          cleanup
  %19 = extractvalue { i8*, i32 } %18, 0
  %20 = extractvalue { i8*, i32 } %18, 1
  invoke fastcc void @_ZN4core3ptr18real_drop_in_place17hb67afcbcf1d2d5b8E(i64** nonnull align 8 dereferenceable(8) %inner.i.i.i) #17
          to label %bb1.i.i.i unwind label %cleanup.i.i

cleanup2.i.i.i:                                   ; preds = %.noexc.i.i.i, %bb3.i.i.i
  %21 = landingpad { i8*, i32 }
          cleanup
  %22 = extractvalue { i8*, i32 } %21, 0
  %23 = extractvalue { i8*, i32 } %21, 1
  invoke fastcc void @_ZN4core3ptr18real_drop_in_place17h0b30e8d9d34d5f31E(i64** nonnull align 8 dereferenceable(8) %_4.i.i.i) #17
          to label %bb1.i.i.i unwind label %cleanup.i.i

bb4.i.i:                                          ; preds = %bb3.i.i.i.i.i, %bb12.i.i.i, %_ZN4core3ptr18real_drop_in_place17h0b30e8d9d34d5f31E.exit.i.i.i
  call void @llvm.lifetime.end.p0i8(i64 8, i8* nonnull %8), !noalias !87
  %24 = load i8, i8* %6, align 8, !range !90
  switch i8 %24, label %bb2.i.i.i.i.i [
    i8 3, label %bb7.i.i
    i8 1, label %bb7.i.i
    i8 0, label %bb7.i.i
  ]

bb2.i.i.i.i.i:                                    ; preds = %bb4.i.i
  %25 = getelementptr inbounds %"core::result::Result<(), std::io::error::Error>", %"core::result::Result<(), std::io::error::Error>"* %_6.i.i, i64 0, i32 2, i64 7
  %26 = bitcast i8* %25 to %"std::io::error::Custom"**
  %27 = load %"std::io::error::Custom"*, %"std::io::error::Custom"** %26, align 8, !nonnull !3
  %28 = bitcast %"std::io::error::Custom"* %27 to {}**
  %29 = load {}*, {}** %28, align 8, !nonnull !3
  %30 = getelementptr inbounds %"std::io::error::Custom", %"std::io::error::Custom"* %27, i64 0, i32 1, i32 1
  %31 = bitcast [3 x i64]** %30 to void ({}*)***
  %32 = load void ({}*)**, void ({}*)*** %31, align 8, !nonnull !3
  %33 = load void ({}*)*, void ({}*)** %32, align 8, !invariant.load !3, !nonnull !3
  %34 = bitcast %"std::io::error::Custom"* %27 to i8*
  invoke void %33({}* nonnull align 1 %29)
          to label %bb3.i.i.i.i.i.i.i.i unwind label %cleanup.i.i.i.i.i.i.i.i

bb3.i.i.i.i.i.i.i.i:                              ; preds = %bb2.i.i.i.i.i
  %35 = bitcast [3 x i64]** %30 to i64**
  %36 = load i64*, i64** %35, align 8, !nonnull !3
  %37 = getelementptr inbounds i64, i64* %36, i64 1
  %38 = load i64, i64* %37, align 8, !invariant.load !3, !alias.scope !91
  %_10.i.i.i.i.i.i.i.i.i = icmp eq i64 %38, 0
  br i1 %_10.i.i.i.i.i.i.i.i.i, label %_ZN4core3ptr18real_drop_in_place17h27b9bb4166fdb623E.exit.i.i.i.i.i, label %bb4.i.i.i.i.i.i.i.i.i

bb4.i.i.i.i.i.i.i.i.i:                            ; preds = %bb3.i.i.i.i.i.i.i.i
  %39 = bitcast %"std::io::error::Custom"* %27 to i8**
  %40 = load i8*, i8** %39, align 8, !nonnull !3
  %41 = getelementptr inbounds i64, i64* %36, i64 2
  %42 = load i64, i64* %41, align 8, !invariant.load !3, !alias.scope !91
  call void @__rust_dealloc(i8* nonnull %40, i64 %38, i64 %42) #9, !noalias !91
  br label %_ZN4core3ptr18real_drop_in_place17h27b9bb4166fdb623E.exit.i.i.i.i.i

cleanup.i.i.i.i.i.i.i.i:                          ; preds = %bb2.i.i.i.i.i
  %43 = landingpad { i8*, i32 }
          cleanup
  %44 = getelementptr inbounds %"std::io::error::Custom", %"std::io::error::Custom"* %27, i64 0, i32 0, i64 0
  %45 = bitcast %"std::io::error::Custom"* %27 to i8**
  %46 = load i8*, i8** %45, align 8, !nonnull !3
  %47 = bitcast [3 x i64]** %30 to i64**
  %48 = load i64*, i64** %47, align 8, !nonnull !3
  call fastcc void @_ZN5alloc5alloc8box_free17h39766183111e1fbdE(i8* nonnull %46, i64* noalias nonnull readonly align 8 dereferenceable(24) %48) #17
  call fastcc void @_ZN5alloc5alloc8box_free17ha829dafaf86a282fE(i64* nonnull %44) #17
  br label %cleanup.body.i.i

_ZN4core3ptr18real_drop_in_place17h27b9bb4166fdb623E.exit.i.i.i.i.i: ; preds = %bb4.i.i.i.i.i.i.i.i.i, %bb3.i.i.i.i.i.i.i.i
  call void @__rust_dealloc(i8* nonnull %34, i64 24, i64 8) #9
  br label %bb7.i.i

bb5.i.i:                                          ; preds = %cleanup1.i.i, %cleanup.body.i.i
  %.sroa.6.0.i.i = phi i32 [ %56, %cleanup1.i.i ], [ %53, %cleanup.body.i.i ]
  %.sroa.0.0.i.i = phi i8* [ %55, %cleanup1.i.i ], [ %52, %cleanup.body.i.i ]
  %_11.i.i = load i64, i64* %_3.sroa.0.0..sroa_idx3.i.i.i.i, align 8, !range !51
  %49 = icmp eq i64 %_11.i.i, 1
  br i1 %49, label %bb1.i.i, label %bb9.i.i

bb7.i.i:                                          ; preds = %_ZN4core3ptr18real_drop_in_place17h27b9bb4166fdb623E.exit.i.i.i.i.i, %bb4.i.i, %bb4.i.i, %bb4.i.i
  call void @llvm.lifetime.end.p0i8(i64 16, i8* nonnull %6)
  %50 = getelementptr inbounds %"mio::net::tcp::TcpStream", %"mio::net::tcp::TcpStream"* %io.i.i, i64 0, i32 3
  invoke void @"_ZN70_$LT$std..sys..unix..fd..FileDesc$u20$as$u20$core..ops..drop..Drop$GT$4drop17hf2b9d188fe38bb32E"(i32* nonnull align 4 dereferenceable(4) %50)
          to label %bb6.i unwind label %cleanup1.i.i

bb9.i.i:                                          ; preds = %bb5.i.i
  invoke fastcc void @_ZN4core3ptr18real_drop_in_place17h039a5de4cf8b2434E(%"core::option::Option<mio::net::tcp::TcpStream>"* nonnull align 8 dereferenceable(24) %_2.i.i) #17
          to label %bb1.i.i unwind label %cleanup.i

cleanup.i.i:                                      ; preds = %cleanup2.i.i.i, %cleanup.i.i.i, %bb3.i.i.i.i.i, %bb3.i.i
  %51 = landingpad { i8*, i32 }
          cleanup
  br label %cleanup.body.i.i

cleanup.body.i.i:                                 ; preds = %cleanup.i.i, %cleanup.i.i.i.i.i.i.i.i, %bb1.i.i.i
  %eh.lpad-body.i.i = phi { i8*, i32 } [ %13, %bb1.i.i.i ], [ %51, %cleanup.i.i ], [ %43, %cleanup.i.i.i.i.i.i.i.i ]
  %52 = extractvalue { i8*, i32 } %eh.lpad-body.i.i, 0
  %53 = extractvalue { i8*, i32 } %eh.lpad-body.i.i, 1
  invoke void @_ZN4core3ptr18real_drop_in_place17h1dfbf6d2047bdac8E(%"mio::net::tcp::TcpStream"* nonnull align 8 dereferenceable(16) %io.i.i) #17
          to label %bb5.i.i unwind label %cleanup.i

cleanup1.i.i:                                     ; preds = %bb7.i.i
  %54 = landingpad { i8*, i32 }
          cleanup
  %55 = extractvalue { i8*, i32 } %54, 0
  %56 = extractvalue { i8*, i32 } %54, 1
  br label %bb5.i.i

bb3.i:                                            ; preds = %cleanup1.i, %cleanup.body.i
  %.sroa.6.0.i = phi i32 [ %74, %cleanup1.i ], [ %70, %cleanup.body.i ]
  %.sroa.0.0.i = phi i8* [ %73, %cleanup1.i ], [ %69, %cleanup.body.i ]
  call fastcc void @_ZN4core3ptr18real_drop_in_place17h47f721620558509eE(%"tokio::io::poll_evented::Inner"* nonnull align 8 dereferenceable(32) %7) #17
  %57 = insertvalue { i8*, i32 } undef, i8* %.sroa.0.0.i, 0
  %58 = insertvalue { i8*, i32 } %57, i32 %.sroa.6.0.i, 1
  resume { i8*, i32 } %58

bb5.i:                                            ; preds = %bb2.i.i, %bb6.i, %bb6.thread.i
  %59 = getelementptr inbounds %"tokio::net::tcp::stream::TcpStream", %"tokio::net::tcp::stream::TcpStream"* %_1, i64 0, i32 1, i32 3
  %60 = bitcast %"tokio::io::poll_evented::Inner"* %59 to { i64*, i64 }*
  invoke void @"_ZN79_$LT$tokio..io..registration..Registration$u20$as$u20$core..ops..drop..Drop$GT$4drop17he0fe257dfb231b17E"({ i64*, i64 }* nonnull align 8 dereferenceable(16) %60)
          to label %bb4.i.i.i unwind label %cleanup.i.i9.i

bb4.i.i.i:                                        ; preds = %bb5.i
  %61 = bitcast %"tokio::io::poll_evented::Inner"* %59 to i64**
  %self.val3.i.i.i.i.i.i = load i64*, i64** %61, align 8
  %magicptr.i.i.i.i.i.i = ptrtoint i64* %self.val3.i.i.i.i.i.i to i64
  switch i64 %magicptr.i.i.i.i.i.i, label %bb3.i.i.i.i.i.i [
    i64 -1, label %_ZN4core3ptr18real_drop_in_place17h2ff7e69193ffba22E.exit
    i64 0, label %_ZN4core3ptr18real_drop_in_place17h2ff7e69193ffba22E.exit
  ]

bb3.i.i.i.i.i.i:                                  ; preds = %bb4.i.i.i
  %_9.i.i.i.i.i.i = getelementptr inbounds i64, i64* %self.val3.i.i.i.i.i.i, i64 1
  %62 = atomicrmw sub i64* %_9.i.i.i.i.i.i, i64 1 release
  %_7.i.i.i.i.i.i = icmp eq i64 %62, 1
  br i1 %_7.i.i.i.i.i.i, label %bb6.i.i.i.i.i.i, label %_ZN4core3ptr18real_drop_in_place17h2ff7e69193ffba22E.exit

bb6.i.i.i.i.i.i:                                  ; preds = %bb3.i.i.i.i.i.i
  fence acquire
  %63 = bitcast %"tokio::io::poll_evented::Inner"* %59 to i8**
  %_164.i.i.i.i.i.i = load i8*, i8** %63, align 8, !nonnull !3
  call void @__rust_dealloc(i8* nonnull %_164.i.i.i.i.i.i, i64 144, i64 8) #9
  br label %_ZN4core3ptr18real_drop_in_place17h2ff7e69193ffba22E.exit

cleanup.i.i9.i:                                   ; preds = %bb5.i
  %64 = landingpad { i8*, i32 }
          cleanup
  %65 = bitcast %"tokio::io::poll_evented::Inner"* %59 to i64**
  call fastcc void @_ZN4core3ptr18real_drop_in_place17hf72921a7bb3322d2E(i64** nonnull align 8 dereferenceable(8) %65) #17
  resume { i8*, i32 } %64

bb6.i:                                            ; preds = %bb7.i.i
  call void @llvm.lifetime.end.p0i8(i64 16, i8* nonnull %5)
  %_2.i10.pre.i = load i64, i64* %z.i.i.i.sroa.0.0.tmp.sroa.0.0..sroa_cast3.i.i.i.i.sroa_idx.i.i.i.i, align 8, !range !51
  %phitmp.i = icmp eq i64 %_2.i10.pre.i, 0
  call void @llvm.lifetime.end.p0i8(i64 24, i8* nonnull %0)
  br i1 %phitmp.i, label %bb5.i, label %bb2.i.i

bb2.i.i:                                          ; preds = %bb6.i
  %66 = getelementptr inbounds %"tokio::net::tcp::stream::TcpStream", %"tokio::net::tcp::stream::TcpStream"* %_1, i64 0, i32 1, i32 1, i32 2, i64 1
  %67 = bitcast i64* %66 to i32*
  invoke void @"_ZN70_$LT$std..sys..unix..fd..FileDesc$u20$as$u20$core..ops..drop..Drop$GT$4drop17hf2b9d188fe38bb32E"(i32* nonnull align 4 dereferenceable(4) %67)
          to label %bb5.i unwind label %cleanup1.i

cleanup.i:                                        ; preds = %cleanup.body.i.i, %bb9.i.i
  %68 = landingpad { i8*, i32 }
          cleanup
  br label %cleanup.body.i

cleanup.body.i:                                   ; preds = %cleanup.i, %bb1.i.i
  %eh.lpad-body.i = phi { i8*, i32 } [ %68, %cleanup.i ], [ %4, %bb1.i.i ]
  %69 = extractvalue { i8*, i32 } %eh.lpad-body.i, 0
  %70 = extractvalue { i8*, i32 } %eh.lpad-body.i, 1
  %71 = bitcast %"tokio::net::tcp::stream::TcpStream"* %_1 to %"core::option::Option<mio::net::tcp::TcpStream>"*
  call fastcc void @_ZN4core3ptr18real_drop_in_place17h039a5de4cf8b2434E(%"core::option::Option<mio::net::tcp::TcpStream>"* nonnull align 8 dereferenceable(24) %71) #17
  br label %bb3.i

cleanup1.i:                                       ; preds = %bb2.i.i
  %72 = landingpad { i8*, i32 }
          cleanup
  %73 = extractvalue { i8*, i32 } %72, 0
  %74 = extractvalue { i8*, i32 } %72, 1
  br label %bb3.i

_ZN4core3ptr18real_drop_in_place17h2ff7e69193ffba22E.exit: ; preds = %bb6.i.i.i.i.i.i, %bb3.i.i.i.i.i.i, %bb4.i.i.i, %bb4.i.i.i
  ret void
}

; Function Attrs: nonlazybind uwtable
define internal fastcc void @_ZN4core3ptr18real_drop_in_place17h57c7b716786d5f27E(%"std::sync::condvar::Condvar"* align 8 dereferenceable(16) %_1) unnamed_addr #1 personality i32 (i32, i32, i64, %"unwind::libunwind::_Unwind_Exception"*, %"unwind::libunwind::_Unwind_Context"*)* @rust_eh_personality {
start:
  invoke void @"_ZN69_$LT$std..sync..condvar..Condvar$u20$as$u20$core..ops..drop..Drop$GT$4drop17h4eee38946b40573cE"(%"std::sync::condvar::Condvar"* nonnull align 8 dereferenceable(16) %_1)
          to label %bb4 unwind label %cleanup

bb4:                                              ; preds = %start
  %0 = bitcast %"std::sync::condvar::Condvar"* %_1 to i8**
  %1 = load i8*, i8** %0, align 8, !nonnull !3
  tail call void @__rust_dealloc(i8* nonnull %1, i64 48, i64 8) #9
  ret void

cleanup:                                          ; preds = %start
  %2 = landingpad { i8*, i32 }
          cleanup
  %3 = bitcast %"std::sync::condvar::Condvar"* %_1 to %"std::sys_common::condvar::Condvar"**
  tail call fastcc void @_ZN4core3ptr18real_drop_in_place17ha6fa1980cd7ce6c6E(%"std::sys_common::condvar::Condvar"** nonnull align 8 dereferenceable(8) %3) #17
  resume { i8*, i32 } %2
}

; Function Attrs: nonlazybind uwtable
define internal fastcc void @_ZN4core3ptr18real_drop_in_place17h5caf02987c84db7fE(i64** align 8 dereferenceable(8) %_1) unnamed_addr #1 {
start:
  tail call void @"_ZN70_$LT$mio..poll..RegistrationInner$u20$as$u20$core..ops..drop..Drop$GT$4drop17h45090a25a224e339E"(i64** nonnull align 8 dereferenceable(8) %_1)
  ret void
}

; Function Attrs: nonlazybind uwtable
define internal void @_ZN4core3ptr18real_drop_in_place17h664ae0e66d8bb2d1E(%"std::io::error::Error"* nocapture readonly align 8 dereferenceable(16) %_1) unnamed_addr #1 personality i32 (i32, i32, i64, %"unwind::libunwind::_Unwind_Exception"*, %"unwind::libunwind::_Unwind_Context"*)* @rust_eh_personality {
start:
  %0 = bitcast %"std::io::error::Error"* %_1 to i8*
  %1 = load i8, i8* %0, align 8, !range !52
  %switch.i = icmp ult i8 %1, 2
  br i1 %switch.i, label %_ZN4core3ptr18real_drop_in_place17h84d8a3b4c84014e2E.exit, label %bb2.i

bb2.i:                                            ; preds = %start
  %2 = getelementptr inbounds %"std::io::error::Error", %"std::io::error::Error"* %_1, i64 0, i32 1, i32 2, i64 7
  %3 = bitcast i8* %2 to %"std::io::error::Custom"**
  %4 = load %"std::io::error::Custom"*, %"std::io::error::Custom"** %3, align 8, !nonnull !3
  %5 = bitcast %"std::io::error::Custom"* %4 to {}**
  %6 = load {}*, {}** %5, align 8, !nonnull !3
  %7 = getelementptr inbounds %"std::io::error::Custom", %"std::io::error::Custom"* %4, i64 0, i32 1, i32 1
  %8 = bitcast [3 x i64]** %7 to void ({}*)***
  %9 = load void ({}*)**, void ({}*)*** %8, align 8, !nonnull !3
  %10 = load void ({}*)*, void ({}*)** %9, align 8, !invariant.load !3, !nonnull !3
  invoke void %10({}* nonnull align 1 %6)
          to label %bb3.i.i.i.i unwind label %cleanup.i.i.i.i

bb3.i.i.i.i:                                      ; preds = %bb2.i
  %11 = bitcast [3 x i64]** %7 to i64**
  %12 = load i64*, i64** %11, align 8, !nonnull !3
  %13 = getelementptr inbounds i64, i64* %12, i64 1
  %14 = load i64, i64* %13, align 8, !invariant.load !3, !alias.scope !94
  %_10.i.i.i.i.i = icmp eq i64 %14, 0
  br i1 %_10.i.i.i.i.i, label %_ZN4core3ptr18real_drop_in_place17h27b9bb4166fdb623E.exit.i, label %bb4.i.i.i.i.i

bb4.i.i.i.i.i:                                    ; preds = %bb3.i.i.i.i
  %15 = bitcast %"std::io::error::Custom"* %4 to i8**
  %16 = load i8*, i8** %15, align 8, !nonnull !3
  %17 = getelementptr inbounds i64, i64* %12, i64 2
  %18 = load i64, i64* %17, align 8, !invariant.load !3, !alias.scope !94
  tail call void @__rust_dealloc(i8* nonnull %16, i64 %14, i64 %18) #9, !noalias !94
  br label %_ZN4core3ptr18real_drop_in_place17h27b9bb4166fdb623E.exit.i

cleanup.i.i.i.i:                                  ; preds = %bb2.i
  %19 = landingpad { i8*, i32 }
          cleanup
  %20 = bitcast %"std::io::error::Custom"* %4 to i8**
  %21 = load i8*, i8** %20, align 8, !nonnull !3
  %22 = bitcast [3 x i64]** %7 to i64**
  %23 = load i64*, i64** %22, align 8, !nonnull !3
  tail call fastcc void @_ZN5alloc5alloc8box_free17h39766183111e1fbdE(i8* nonnull %21, i64* noalias nonnull readonly align 8 dereferenceable(24) %23) #17
  %24 = bitcast i8* %2 to i64**
  %25 = load i64*, i64** %24, align 8, !nonnull !3
  tail call fastcc void @_ZN5alloc5alloc8box_free17ha829dafaf86a282fE(i64* nonnull %25) #17
  resume { i8*, i32 } %19

_ZN4core3ptr18real_drop_in_place17h27b9bb4166fdb623E.exit.i: ; preds = %bb4.i.i.i.i.i, %bb3.i.i.i.i
  %26 = bitcast i8* %2 to i8**
  %27 = load i8*, i8** %26, align 8, !nonnull !3
  tail call void @__rust_dealloc(i8* nonnull %27, i64 24, i64 8) #9
  br label %_ZN4core3ptr18real_drop_in_place17h84d8a3b4c84014e2E.exit

_ZN4core3ptr18real_drop_in_place17h84d8a3b4c84014e2E.exit: ; preds = %_ZN4core3ptr18real_drop_in_place17h27b9bb4166fdb623E.exit.i, %start
  ret void
}

; Function Attrs: nonlazybind uwtable
define internal void @_ZN4core3ptr18real_drop_in_place17h66967e7ef667e5e9E({ i64*, i8 }* nocapture readonly align 8 dereferenceable(16) %_1) unnamed_addr #1 personality i32 (i32, i32, i64, %"unwind::libunwind::_Unwind_Exception"*, %"unwind::libunwind::_Unwind_Context"*)* @rust_eh_personality {
start:
  %0 = bitcast { i64*, i8 }* %_1 to %"std::sync::mutex::Mutex<tokio::runtime::thread_pool::queue::global::Pointers>"**
  %1 = load %"std::sync::mutex::Mutex<tokio::runtime::thread_pool::queue::global::Pointers>"*, %"std::sync::mutex::Mutex<tokio::runtime::thread_pool::queue::global::Pointers>"** %0, align 8, !nonnull !3
  %_5.i.i = getelementptr inbounds { i64*, i8 }, { i64*, i8 }* %_1, i64 0, i32 1
  %_5.val.i.i = load i8, i8* %_5.i.i, align 8
  %_5.i.i.i = icmp eq i8 %_5.val.i.i, 0
  br i1 %_5.i.i.i, label %bb3.i.i.i, label %_ZN4core3ptr18real_drop_in_place17h17386eb751d7fc4eE.exit

bb3.i.i.i:                                        ; preds = %start
  %2 = tail call zeroext i1 @_ZN3std9panicking9panicking17hb29bc5349f72a38fE()
  br i1 %2, label %bb6.i.i.i, label %_ZN4core3ptr18real_drop_in_place17h17386eb751d7fc4eE.exit

bb6.i.i.i:                                        ; preds = %bb3.i.i.i
  %_6.i.i.i.i = getelementptr inbounds %"std::sync::mutex::Mutex<tokio::runtime::thread_pool::queue::global::Pointers>", %"std::sync::mutex::Mutex<tokio::runtime::thread_pool::queue::global::Pointers>"* %1, i64 0, i32 3, i32 0, i64 0
  store atomic i8 1, i8* %_6.i.i.i.i monotonic, align 1
  br label %_ZN4core3ptr18real_drop_in_place17h17386eb751d7fc4eE.exit

_ZN4core3ptr18real_drop_in_place17h17386eb751d7fc4eE.exit: ; preds = %bb6.i.i.i, %bb3.i.i.i, %start
  %3 = bitcast { i64*, i8 }* %_1 to %"libc::unix::linux_like::linux::pthread_mutex_t"***
  %4 = load %"libc::unix::linux_like::linux::pthread_mutex_t"**, %"libc::unix::linux_like::linux::pthread_mutex_t"*** %3, align 8, !nonnull !3
  %_71.i.i = load %"libc::unix::linux_like::linux::pthread_mutex_t"*, %"libc::unix::linux_like::linux::pthread_mutex_t"** %4, align 8, !nonnull !3
  %5 = tail call i32 @pthread_mutex_unlock(%"libc::unix::linux_like::linux::pthread_mutex_t"* nonnull %_71.i.i) #9
  ret void
}

; Function Attrs: nonlazybind uwtable
define internal fastcc void @_ZN4core3ptr18real_drop_in_place17h66e229bae9518afeE({ i8*, i8* }* nocapture readonly align 8 dereferenceable(16) %_1) unnamed_addr #1 personality i32 (i32, i32, i64, %"unwind::libunwind::_Unwind_Exception"*, %"unwind::libunwind::_Unwind_Context"*)* @rust_eh_personality {
start:
  %0 = bitcast { i8*, i8* }* %_1 to {}**
  %1 = load {}*, {}** %0, align 8
  %2 = icmp eq {}* %1, null
  br i1 %2, label %bb1, label %bb2

bb1:                                              ; preds = %bb4.i.i, %bb3.i, %start
  ret void

bb2:                                              ; preds = %start
  %3 = getelementptr inbounds { i8*, i8* }, { i8*, i8* }* %_1, i64 0, i32 1
  %4 = bitcast i8** %3 to void ({}*)***
  %5 = load void ({}*)**, void ({}*)*** %4, align 8, !nonnull !3
  %6 = load void ({}*)*, void ({}*)** %5, align 8, !invariant.load !3, !nonnull !3
  invoke void %6({}* nonnull align 1 %1)
          to label %bb3.i unwind label %cleanup.i

bb3.i:                                            ; preds = %bb2
  %7 = bitcast i8** %3 to i64**
  %8 = load i64*, i64** %7, align 8, !nonnull !3
  %9 = getelementptr inbounds i64, i64* %8, i64 1
  %10 = load i64, i64* %9, align 8, !invariant.load !3, !alias.scope !97
  %_10.i.i = icmp eq i64 %10, 0
  br i1 %_10.i.i, label %bb1, label %bb4.i.i

bb4.i.i:                                          ; preds = %bb3.i
  %11 = getelementptr inbounds { i8*, i8* }, { i8*, i8* }* %_1, i64 0, i32 0
  %12 = load i8*, i8** %11, align 8, !nonnull !3
  %13 = getelementptr inbounds i64, i64* %8, i64 2
  %14 = load i64, i64* %13, align 8, !invariant.load !3, !alias.scope !97
  tail call void @__rust_dealloc(i8* nonnull %12, i64 %10, i64 %14) #9, !noalias !97
  br label %bb1

cleanup.i:                                        ; preds = %bb2
  %15 = landingpad { i8*, i32 }
          cleanup
  %16 = getelementptr inbounds { i8*, i8* }, { i8*, i8* }* %_1, i64 0, i32 0
  %17 = load i8*, i8** %16, align 8, !nonnull !3
  %18 = bitcast i8** %3 to i64**
  %19 = load i64*, i64** %18, align 8, !nonnull !3
  tail call fastcc void @_ZN5alloc5alloc8box_free17h39766183111e1fbdE(i8* nonnull %17, i64* noalias nonnull readonly align 8 dereferenceable(24) %19) #17
  resume { i8*, i32 } %15
}

; Function Attrs: nonlazybind uwtable
define internal fastcc void @_ZN4core3ptr18real_drop_in_place17h691669770397616fE({ i64, i8* }* nocapture readonly align 8 dereferenceable(16) %_1) unnamed_addr #1 {
start:
  %0 = getelementptr inbounds { i64, i8* }, { i64, i8* }* %_1, i64 0, i32 0
  %_2 = load i64, i64* %0, align 8, !range !28
  switch i64 %_2, label %bb3 [
    i64 0, label %bb1
    i64 1, label %bb2
  ]

bb1:                                              ; preds = %bb3.i.i.i4, %bb3, %bb3.i.i.i, %bb2, %start
  ret void

bb2:                                              ; preds = %start
  %1 = getelementptr inbounds { i64, i8* }, { i64, i8* }* %_1, i64 0, i32 1
  %2 = bitcast i8** %1 to %"core::sync::atomic::AtomicUsize"**
  %self.val12.i.i.i = load %"core::sync::atomic::AtomicUsize"*, %"core::sync::atomic::AtomicUsize"** %2, align 8
  %_5.i.i.i.i = getelementptr inbounds %"core::sync::atomic::AtomicUsize", %"core::sync::atomic::AtomicUsize"* %self.val12.i.i.i, i64 0, i32 0, i64 0
  %3 = atomicrmw sub i64* %_5.i.i.i.i, i64 1 release
  %_2.i.i.i = icmp eq i64 %3, 1
  br i1 %_2.i.i.i, label %bb3.i.i.i, label %bb1

bb3.i.i.i:                                        ; preds = %bb2
  %4 = bitcast i8** %1 to i64**
  fence acquire
  tail call fastcc void @"_ZN5alloc4sync12Arc$LT$T$GT$9drop_slow17h9b2e2fe3654c86e4E"(i64** nonnull align 8 dereferenceable(8) %4)
  br label %bb1

bb3:                                              ; preds = %start
  %5 = getelementptr inbounds { i64, i8* }, { i64, i8* }* %_1, i64 0, i32 1
  %6 = bitcast i8** %5 to %"core::sync::atomic::AtomicUsize"**
  %self.val12.i.i.i1 = load %"core::sync::atomic::AtomicUsize"*, %"core::sync::atomic::AtomicUsize"** %6, align 8
  %_5.i.i.i.i2 = getelementptr inbounds %"core::sync::atomic::AtomicUsize", %"core::sync::atomic::AtomicUsize"* %self.val12.i.i.i1, i64 0, i32 0, i64 0
  %7 = atomicrmw sub i64* %_5.i.i.i.i2, i64 1 release
  %_2.i.i.i3 = icmp eq i64 %7, 1
  br i1 %_2.i.i.i3, label %bb3.i.i.i4, label %bb1

bb3.i.i.i4:                                       ; preds = %bb3
  %8 = bitcast i8** %5 to i64**
  fence acquire
  tail call fastcc void @"_ZN5alloc4sync12Arc$LT$T$GT$9drop_slow17hbcd17717d774df8bE"(i64** nonnull align 8 dereferenceable(8) %8)
  br label %bb1
}

; Function Attrs: nonlazybind uwtable
define internal fastcc void @_ZN4core3ptr18real_drop_in_place17h6a1b919391b771b5E(i64** nocapture readonly align 8 dereferenceable(8) %_1) unnamed_addr #1 {
start:
  %0 = bitcast i64** %_1 to %"core::sync::atomic::AtomicUsize"**
  %self.val12.i = load %"core::sync::atomic::AtomicUsize"*, %"core::sync::atomic::AtomicUsize"** %0, align 8
  %_5.i.i = getelementptr inbounds %"core::sync::atomic::AtomicUsize", %"core::sync::atomic::AtomicUsize"* %self.val12.i, i64 0, i32 0, i64 0
  %1 = atomicrmw sub i64* %_5.i.i, i64 1 release
  %_2.i = icmp eq i64 %1, 1
  br i1 %_2.i, label %bb3.i, label %"_ZN67_$LT$alloc..sync..Arc$LT$T$GT$$u20$as$u20$core..ops..drop..Drop$GT$4drop17h203bbea02d7e2a24E.exit"

bb3.i:                                            ; preds = %start
  fence acquire
  tail call fastcc void @"_ZN5alloc4sync12Arc$LT$T$GT$9drop_slow17h9da3ed3bbf13a0f5E"(i64** nonnull align 8 dereferenceable(8) %_1)
  br label %"_ZN67_$LT$alloc..sync..Arc$LT$T$GT$$u20$as$u20$core..ops..drop..Drop$GT$4drop17h203bbea02d7e2a24E.exit"

"_ZN67_$LT$alloc..sync..Arc$LT$T$GT$$u20$as$u20$core..ops..drop..Drop$GT$4drop17h203bbea02d7e2a24E.exit": ; preds = %bb3.i, %start
  ret void
}

; Function Attrs: nounwind nonlazybind uwtable
define internal fastcc void @_ZN4core3ptr18real_drop_in_place17h6aa61a8176e62ef4E(%"tokio::runtime::thread_pool::idle::Idle"* nocapture readonly align 8 dereferenceable(56) %_1) unnamed_addr #5 personality i32 (i32, i32, i64, %"unwind::libunwind::_Unwind_Exception"*, %"unwind::libunwind::_Unwind_Context"*)* @rust_eh_personality {
start:
  %0 = getelementptr inbounds %"tokio::runtime::thread_pool::idle::Idle", %"tokio::runtime::thread_pool::idle::Idle"* %_1, i64 0, i32 3
  %1 = bitcast %"std::sync::mutex::Mutex<alloc::vec::Vec<usize>>"* %0 to %"libc::unix::linux_like::linux::pthread_mutex_t"**
  %_21.i.i = load %"libc::unix::linux_like::linux::pthread_mutex_t"*, %"libc::unix::linux_like::linux::pthread_mutex_t"** %1, align 8, !nonnull !3
  %2 = tail call i32 @pthread_mutex_destroy(%"libc::unix::linux_like::linux::pthread_mutex_t"* nonnull %_21.i.i) #9
  %3 = bitcast %"std::sync::mutex::Mutex<alloc::vec::Vec<usize>>"* %0 to i8**
  %4 = load i8*, i8** %3, align 8, !nonnull !3
  tail call void @__rust_dealloc(i8* nonnull %4, i64 40, i64 8) #9
  %5 = getelementptr %"tokio::runtime::thread_pool::idle::Idle", %"tokio::runtime::thread_pool::idle::Idle"* %_1, i64 0, i32 3, i32 5, i32 1, i32 1, i32 1
  %.idx4.val.i.i.i = load i64, i64* %5, align 8
  %_2.i.i.i.i.i.i.i = icmp eq i64 %.idx4.val.i.i.i, 0
  br i1 %_2.i.i.i.i.i.i.i, label %_ZN4core3ptr18real_drop_in_place17hb3e81a9042209f22E.exit, label %bb4.i.i.i.i.i.i

bb4.i.i.i.i.i.i:                                  ; preds = %start
  %6 = getelementptr inbounds %"tokio::runtime::thread_pool::idle::Idle", %"tokio::runtime::thread_pool::idle::Idle"* %_1, i64 0, i32 3, i32 5
  %7 = bitcast %"core::cell::UnsafeCell<alloc::vec::Vec<usize>>"* %6 to i8**
  %.idx.val7.i.i.i = load i8*, i8** %7, align 8
  %size.i.i.i.i.i.i.i = shl i64 %.idx4.val.i.i.i, 3
  tail call void @__rust_dealloc(i8* nonnull %.idx.val7.i.i.i, i64 %size.i.i.i.i.i.i.i, i64 8) #9
  br label %_ZN4core3ptr18real_drop_in_place17hb3e81a9042209f22E.exit

_ZN4core3ptr18real_drop_in_place17hb3e81a9042209f22E.exit: ; preds = %bb4.i.i.i.i.i.i, %start
  ret void
}

; Function Attrs: nonlazybind uwtable
define internal fastcc void @_ZN4core3ptr18real_drop_in_place17h6ac5afa1bd86ed5cE(i64** align 8 dereferenceable(8) %_1) unnamed_addr #1 personality i32 (i32, i32, i64, %"unwind::libunwind::_Unwind_Exception"*, %"unwind::libunwind::_Unwind_Context"*)* @rust_eh_personality {
start:
  invoke void @"_ZN65_$LT$mio..poll..Registration$u20$as$u20$core..ops..drop..Drop$GT$4drop17hbe158bb9c1ab5543E"(i64** nonnull align 8 dereferenceable(8) %_1)
          to label %bb4 unwind label %cleanup

bb4:                                              ; preds = %start
  tail call void @"_ZN70_$LT$mio..poll..RegistrationInner$u20$as$u20$core..ops..drop..Drop$GT$4drop17h45090a25a224e339E"(i64** nonnull align 8 dereferenceable(8) %_1)
  ret void

cleanup:                                          ; preds = %start
  %0 = landingpad { i8*, i32 }
          cleanup
  tail call fastcc void @_ZN4core3ptr18real_drop_in_place17h5caf02987c84db7fE(i64** nonnull align 8 dereferenceable(8) %_1) #17
  resume { i8*, i32 } %0
}

; Function Attrs: nonlazybind uwtable
define internal fastcc void @_ZN4core3ptr18real_drop_in_place17h6ad18ef181805c70E(%"core::option::Option<tokio::runtime::handle::Handle>"* nocapture readonly align 8 dereferenceable(32) %_1) unnamed_addr #1 {
start:
  %0 = getelementptr inbounds %"core::option::Option<tokio::runtime::handle::Handle>", %"core::option::Option<tokio::runtime::handle::Handle>"* %_1, i64 0, i32 0, i64 0
  %1 = load i64, i64* %0, align 8, !range !61
  %2 = icmp eq i64 %1, 3
  br i1 %2, label %bb1, label %bb2

bb1:                                              ; preds = %bb2, %start
  ret void

bb2:                                              ; preds = %start
  %3 = bitcast %"core::option::Option<tokio::runtime::handle::Handle>"* %_1 to %"tokio::runtime::handle::Handle"*
  tail call fastcc void @_ZN4core3ptr18real_drop_in_place17he00dcfa818232a3eE(%"tokio::runtime::handle::Handle"* nonnull align 8 dereferenceable(32) %3)
  br label %bb1
}

; Function Attrs: nonlazybind uwtable
define internal fastcc void @_ZN4core3ptr18real_drop_in_place17h6bec50ca570047d9E({ i64*, i8* }* nocapture readonly align 8 dereferenceable(16) %_1) unnamed_addr #1 {
start:
  %0 = bitcast { i64*, i8* }* %_1 to {}**
  %1 = load {}*, {}** %0, align 8
  %2 = icmp eq {}* %1, null
  br i1 %2, label %bb1, label %bb2

bb1:                                              ; preds = %bb3.i.i, %bb2, %start
  ret void

bb2:                                              ; preds = %start
  %_5.i.i.i = bitcast {}* %1 to i64*
  %3 = atomicrmw sub i64* %_5.i.i.i, i64 1 release
  %_2.i.i = icmp eq i64 %3, 1
  br i1 %_2.i.i, label %bb3.i.i, label %bb1

bb3.i.i:                                          ; preds = %bb2
  %4 = bitcast { i64*, i8* }* %_1 to { i64*, i64* }*
  fence acquire
  tail call fastcc void @"_ZN5alloc4sync12Arc$LT$T$GT$9drop_slow17hce72188c7ef7cdffE"({ i64*, i64* }* nonnull align 8 dereferenceable(16) %4)
  br label %bb1
}

; Function Attrs: nonlazybind uwtable
define internal fastcc void @_ZN4core3ptr18real_drop_in_place17h7adc16293b341271E(%"std::future::GenFuture<tokio::net::tcp::listener::{{impl}}::bind::{{closure}}<&str>>"* nocapture align 8 dereferenceable(80) %_1) unnamed_addr #1 personality i32 (i32, i32, i64, %"unwind::libunwind::_Unwind_Exception"*, %"unwind::libunwind::_Unwind_Context"*)* @rust_eh_personality {
start:
  %raw.i.i.i.i = alloca i64*, align 8
  %0 = getelementptr inbounds %"std::future::GenFuture<tokio::net::tcp::listener::{{impl}}::bind::{{closure}}<&str>>", %"std::future::GenFuture<tokio::net::tcp::listener::{{impl}}::bind::{{closure}}<&str>>"* %_1, i64 0, i32 1, i32 3
  %_69.i = load i32, i32* %0, align 8
  %cond.i = icmp eq i32 %_69.i, 3
  br i1 %cond.i, label %bb12.i, label %_ZN4core3ptr18real_drop_in_place17hf00f322d9e323da6E.exit

bb12.i:                                           ; preds = %start
  %1 = getelementptr inbounds %"std::future::GenFuture<tokio::net::tcp::listener::{{impl}}::bind::{{closure}}<&str>>", %"std::future::GenFuture<tokio::net::tcp::listener::{{impl}}::bind::{{closure}}<&str>>"* %_1, i64 0, i32 1, i32 2, i64 4
  %2 = load i32, i32* %1, align 8, !range !77
  %3 = icmp eq i32 %2, 0
  br i1 %3, label %_ZN4core3ptr18real_drop_in_place17hf00f322d9e323da6E.exit, label %bb2.i.i

bb2.i.i:                                          ; preds = %bb12.i
  %4 = getelementptr inbounds %"std::future::GenFuture<tokio::net::tcp::listener::{{impl}}::bind::{{closure}}<&str>>", %"std::future::GenFuture<tokio::net::tcp::listener::{{impl}}::bind::{{closure}}<&str>>"* %_1, i64 0, i32 1, i32 2, i64 6
  %5 = bitcast i32* %4 to i64**
  %6 = bitcast i32* %4 to i64*
  %7 = load i64*, i64** %5, align 8
  store i64 0, i64* %6, align 8
  %8 = icmp eq i64* %7, null
  br i1 %8, label %_ZN4core3ptr18real_drop_in_place17hf00f322d9e323da6E.exit, label %bb2.i.i.i.i

bb2.i.i.i.i:                                      ; preds = %bb2.i.i
  %9 = bitcast i64** %raw.i.i.i.i to i8*
  call void @llvm.lifetime.start.p0i8(i64 8, i8* nonnull %9)
  store i64* %7, i64** %raw.i.i.i.i, align 8
  %10 = call align 8 dereferenceable(48) %"tokio::task::core::Header"* @_ZN5tokio4task3raw7RawTask6header17h887b575297842f2aE(i64** noalias nonnull readonly align 8 dereferenceable(8) %raw.i.i.i.i)
  %_7.i.i.i.i = bitcast %"tokio::task::core::Header"* %10 to %"tokio::task::state::State"*
  %11 = call zeroext i1 @_ZN5tokio4task5state5State21drop_join_handle_fast17hda3cbd0e3b0dff84E(%"tokio::task::state::State"* nonnull align 8 dereferenceable(8) %_7.i.i.i.i)
  br i1 %11, label %bb6.i.i.i.i, label %bb5.i.i.i.i

bb5.i.i.i.i:                                      ; preds = %bb2.i.i.i.i
  %_11.i.i.i.i = load i64*, i64** %raw.i.i.i.i, align 8, !nonnull !3
  call void @_ZN5tokio4task3raw7RawTask21drop_join_handle_slow17h0a08c8ada2900777E(i64* nonnull %_11.i.i.i.i)
  call void @llvm.lifetime.end.p0i8(i64 8, i8* nonnull %9)
  br label %_ZN4core3ptr18real_drop_in_place17hf00f322d9e323da6E.exit

bb6.i.i.i.i:                                      ; preds = %bb2.i.i.i.i
  call void @llvm.lifetime.end.p0i8(i64 8, i8* nonnull %9)
  br label %_ZN4core3ptr18real_drop_in_place17hf00f322d9e323da6E.exit

_ZN4core3ptr18real_drop_in_place17hf00f322d9e323da6E.exit: ; preds = %bb6.i.i.i.i, %bb5.i.i.i.i, %bb2.i.i, %bb12.i, %start
  ret void
}

; Function Attrs: nonlazybind uwtable
define internal fastcc void @_ZN4core3ptr18real_drop_in_place17h7d623c73fcbe815dE(i64** nocapture readonly align 8 dereferenceable(8) %_1) unnamed_addr #1 {
start:
  %0 = bitcast i64** %_1 to %"core::sync::atomic::AtomicUsize"**
  %self.val12.i = load %"core::sync::atomic::AtomicUsize"*, %"core::sync::atomic::AtomicUsize"** %0, align 8
  %_5.i.i = getelementptr inbounds %"core::sync::atomic::AtomicUsize", %"core::sync::atomic::AtomicUsize"* %self.val12.i, i64 0, i32 0, i64 0
  %1 = atomicrmw sub i64* %_5.i.i, i64 1 release
  %_2.i = icmp eq i64 %1, 1
  br i1 %_2.i, label %bb3.i, label %"_ZN67_$LT$alloc..sync..Arc$LT$T$GT$$u20$as$u20$core..ops..drop..Drop$GT$4drop17hd4a462d8c71cf916E.exit"

bb3.i:                                            ; preds = %start
  fence acquire
  tail call fastcc void @"_ZN5alloc4sync12Arc$LT$T$GT$9drop_slow17h9b2e2fe3654c86e4E"(i64** nonnull align 8 dereferenceable(8) %_1)
  br label %"_ZN67_$LT$alloc..sync..Arc$LT$T$GT$$u20$as$u20$core..ops..drop..Drop$GT$4drop17hd4a462d8c71cf916E.exit"

"_ZN67_$LT$alloc..sync..Arc$LT$T$GT$$u20$as$u20$core..ops..drop..Drop$GT$4drop17hd4a462d8c71cf916E.exit": ; preds = %bb3.i, %start
  ret void
}

; Function Attrs: nonlazybind uwtable
define internal fastcc void @_ZN4core3ptr18real_drop_in_place17h7fdbf070a286670aE(%"tokio::util::slab::page::Shared<tokio::io::driver::scheduled_io::ScheduledIo>"* nocapture readonly align 8 dereferenceable(40) %_1) unnamed_addr #1 personality i32 (i32, i32, i64, %"unwind::libunwind::_Unwind_Exception"*, %"unwind::libunwind::_Unwind_Context"*)* @rust_eh_personality {
start:
  %0 = getelementptr inbounds %"tokio::util::slab::page::Shared<tokio::io::driver::scheduled_io::ScheduledIo>", %"tokio::util::slab::page::Shared<tokio::io::driver::scheduled_io::ScheduledIo>"* %_1, i64 0, i32 7
  %1 = bitcast { i64*, i64 }* %0 to {}**
  %2 = load {}*, {}** %1, align 8
  %3 = icmp eq {}* %2, null
  br i1 %3, label %_ZN4core3ptr18real_drop_in_place17hb27fb0c9e6fe59a4E.exit, label %bb2.i.i.i

bb2.i.i.i:                                        ; preds = %start
  %4 = bitcast {}* %2 to [0 x %"tokio::util::slab::slot::Slot<tokio::io::driver::scheduled_io::ScheduledIo>"]*
  %5 = getelementptr inbounds %"tokio::util::slab::page::Shared<tokio::io::driver::scheduled_io::ScheduledIo>", %"tokio::util::slab::page::Shared<tokio::io::driver::scheduled_io::ScheduledIo>"* %_1, i64 0, i32 7, i32 1
  %6 = load i64, i64* %5, align 8
  %7 = getelementptr inbounds [0 x %"tokio::util::slab::slot::Slot<tokio::io::driver::scheduled_io::ScheduledIo>"], [0 x %"tokio::util::slab::slot::Slot<tokio::io::driver::scheduled_io::ScheduledIo>"]* %4, i64 0, i64 %6
  %_1420.i.i.i.i.i = icmp eq i64 %6, 0
  br i1 %_1420.i.i.i.i.i, label %_ZN4core3ptr18real_drop_in_place17hb27fb0c9e6fe59a4E.exit, label %bb10.preheader.i.i.i.i.i

bb10.preheader.i.i.i.i.i:                         ; preds = %bb2.i.i.i
  %8 = bitcast {}* %2 to %"tokio::util::slab::slot::Slot<tokio::io::driver::scheduled_io::ScheduledIo>"*
  br label %bb10.i.i.i.i.i

bb8.i.i.i.i.i:                                    ; preds = %cleanup.body.i.i.i.i.i, %.noexc.i.i.i.i
  %_9.019.i.i.i.i.i = phi %"tokio::util::slab::slot::Slot<tokio::io::driver::scheduled_io::ScheduledIo>"* [ %9, %.noexc.i.i.i.i ], [ %10, %cleanup.body.i.i.i.i.i ]
  %9 = getelementptr inbounds %"tokio::util::slab::slot::Slot<tokio::io::driver::scheduled_io::ScheduledIo>", %"tokio::util::slab::slot::Slot<tokio::io::driver::scheduled_io::ScheduledIo>"* %_9.019.i.i.i.i.i, i64 1
  invoke fastcc void @_ZN4core3ptr18real_drop_in_place17hec17986a815092ecE(%"tokio::util::slab::slot::Slot<tokio::io::driver::scheduled_io::ScheduledIo>"* nonnull align 8 dereferenceable(64) %_9.019.i.i.i.i.i) #17
          to label %.noexc.i.i.i.i unwind label %cleanup.i.i.i.i

.noexc.i.i.i.i:                                   ; preds = %bb8.i.i.i.i.i
  %_12.i.i.i.i.i = icmp eq %"tokio::util::slab::slot::Slot<tokio::io::driver::scheduled_io::ScheduledIo>"* %9, %7
  br i1 %_12.i.i.i.i.i, label %cleanup.body.i.i.i.i, label %bb8.i.i.i.i.i

bb10.i.i.i.i.i:                                   ; preds = %_ZN4core3ptr18real_drop_in_place17hec17986a815092ecE.exit.i.i.i.i.i, %bb10.preheader.i.i.i.i.i
  %_9.121.i.i.i.i.i = phi %"tokio::util::slab::slot::Slot<tokio::io::driver::scheduled_io::ScheduledIo>"* [ %10, %_ZN4core3ptr18real_drop_in_place17hec17986a815092ecE.exit.i.i.i.i.i ], [ %8, %bb10.preheader.i.i.i.i.i ]
  %10 = getelementptr inbounds %"tokio::util::slab::slot::Slot<tokio::io::driver::scheduled_io::ScheduledIo>", %"tokio::util::slab::slot::Slot<tokio::io::driver::scheduled_io::ScheduledIo>"* %_9.121.i.i.i.i.i, i64 1
  %11 = getelementptr inbounds %"tokio::util::slab::slot::Slot<tokio::io::driver::scheduled_io::ScheduledIo>", %"tokio::util::slab::slot::Slot<tokio::io::driver::scheduled_io::ScheduledIo>"* %_9.121.i.i.i.i.i, i64 0, i32 3
  invoke void @"_ZN86_$LT$tokio..io..driver..scheduled_io..ScheduledIo$u20$as$u20$core..ops..drop..Drop$GT$4drop17h0f6da5c3897a82caE"(%"tokio::io::driver::scheduled_io::ScheduledIo"* nonnull align 8 dereferenceable(56) %11)
          to label %bb6.i.i.i.i.i.i.i unwind label %cleanup.i.i.i.i.i.i.i

bb3.i.i.i.i.i.i.i:                                ; preds = %cleanup1.i.i.i.i.i.i.i, %cleanup.i.i.i.i.i.i.i
  %.sroa.6.0.i.i.i.i.i.i.i = phi i32 [ %37, %cleanup1.i.i.i.i.i.i.i ], [ %33, %cleanup.i.i.i.i.i.i.i ]
  %.sroa.0.0.i.i.i.i.i.i.i = phi i8* [ %36, %cleanup1.i.i.i.i.i.i.i ], [ %32, %cleanup.i.i.i.i.i.i.i ]
  %12 = getelementptr inbounds %"tokio::util::slab::slot::Slot<tokio::io::driver::scheduled_io::ScheduledIo>", %"tokio::util::slab::slot::Slot<tokio::io::driver::scheduled_io::ScheduledIo>"* %_9.121.i.i.i.i.i, i64 0, i32 3, i32 5
  invoke fastcc void @_ZN4core3ptr18real_drop_in_place17h4b8193e59cd485a1E(%"tokio::sync::task::atomic_waker::AtomicWaker"* nonnull align 8 dereferenceable(24) %12) #17
          to label %.noexc.i.i.i.i.i unwind label %cleanup.loopexit.split-lp.i.i.i.i.i

.noexc.i.i.i.i.i:                                 ; preds = %bb3.i.i.i.i.i.i.i
  %13 = insertvalue { i8*, i32 } undef, i8* %.sroa.0.0.i.i.i.i.i.i.i, 0
  %14 = insertvalue { i8*, i32 } %13, i32 %.sroa.6.0.i.i.i.i.i.i.i, 1
  br label %cleanup.body.i.i.i.i.i

bb5.i.i.i.i.i.i.i:                                ; preds = %bb2.i.i.i.i10.i.i.i.i.i.i.i, %bb6.i.i.i.i.i.i.i
  %15 = getelementptr inbounds %"tokio::util::slab::slot::Slot<tokio::io::driver::scheduled_io::ScheduledIo>", %"tokio::util::slab::slot::Slot<tokio::io::driver::scheduled_io::ScheduledIo>"* %_9.121.i.i.i.i.i, i64 0, i32 3, i32 5, i32 3, i32 1
  %16 = bitcast i64** %15 to {}**
  %17 = load {}*, {}** %16, align 8
  %18 = icmp eq {}* %17, null
  br i1 %18, label %_ZN4core3ptr18real_drop_in_place17hec17986a815092ecE.exit.i.i.i.i.i, label %bb2.i.i.i.i.i.i.i.i.i.i.i

bb2.i.i.i.i.i.i.i.i.i.i.i:                        ; preds = %bb5.i.i.i.i.i.i.i
  %19 = getelementptr inbounds %"tokio::util::slab::slot::Slot<tokio::io::driver::scheduled_io::ScheduledIo>", %"tokio::util::slab::slot::Slot<tokio::io::driver::scheduled_io::ScheduledIo>"* %_9.121.i.i.i.i.i, i64 0, i32 3, i32 5, i32 3
  %20 = bitcast {}* %17 to %"core::task::wake::RawWakerVTable"*
  %21 = getelementptr inbounds %"core::task::wake::RawWakerVTable", %"core::task::wake::RawWakerVTable"* %20, i64 0, i32 7
  %_2.i.i.i.i.i.i.i.i.i.i.i.i.i = load void ({}*)*, void ({}*)** %21, align 8, !nonnull !3
  %22 = bitcast { i8*, i64* }* %19 to {}**
  %_3.i.i.i.i.i.i.i.i.i.i.i.i.i = load {}*, {}** %22, align 8
  invoke void %_2.i.i.i.i.i.i.i.i.i.i.i.i.i({}* %_3.i.i.i.i.i.i.i.i.i.i.i.i.i)
          to label %_ZN4core3ptr18real_drop_in_place17hec17986a815092ecE.exit.i.i.i.i.i unwind label %cleanup.loopexit.i.i.i.i.i

bb6.i.i.i.i.i.i.i:                                ; preds = %bb10.i.i.i.i.i
  %23 = getelementptr inbounds %"tokio::util::slab::slot::Slot<tokio::io::driver::scheduled_io::ScheduledIo>", %"tokio::util::slab::slot::Slot<tokio::io::driver::scheduled_io::ScheduledIo>"* %_9.121.i.i.i.i.i, i64 0, i32 3, i32 3, i32 3, i32 1
  %24 = bitcast i64** %23 to {}**
  %25 = load {}*, {}** %24, align 8
  %26 = icmp eq {}* %25, null
  br i1 %26, label %bb5.i.i.i.i.i.i.i, label %bb2.i.i.i.i10.i.i.i.i.i.i.i

bb2.i.i.i.i10.i.i.i.i.i.i.i:                      ; preds = %bb6.i.i.i.i.i.i.i
  %27 = getelementptr inbounds %"tokio::util::slab::slot::Slot<tokio::io::driver::scheduled_io::ScheduledIo>", %"tokio::util::slab::slot::Slot<tokio::io::driver::scheduled_io::ScheduledIo>"* %_9.121.i.i.i.i.i, i64 0, i32 3, i32 3, i32 3
  %28 = bitcast {}* %25 to %"core::task::wake::RawWakerVTable"*
  %29 = getelementptr inbounds %"core::task::wake::RawWakerVTable", %"core::task::wake::RawWakerVTable"* %28, i64 0, i32 7
  %_2.i.i.i.i.i.i8.i.i.i.i.i.i.i = load void ({}*)*, void ({}*)** %29, align 8, !nonnull !3
  %30 = bitcast { i8*, i64* }* %27 to {}**
  %_3.i.i.i.i.i.i9.i.i.i.i.i.i.i = load {}*, {}** %30, align 8
  invoke void %_2.i.i.i.i.i.i8.i.i.i.i.i.i.i({}* %_3.i.i.i.i.i.i9.i.i.i.i.i.i.i)
          to label %bb5.i.i.i.i.i.i.i unwind label %cleanup1.i.i.i.i.i.i.i

cleanup.i.i.i.i.i.i.i:                            ; preds = %bb10.i.i.i.i.i
  %31 = landingpad { i8*, i32 }
          cleanup
  %32 = extractvalue { i8*, i32 } %31, 0
  %33 = extractvalue { i8*, i32 } %31, 1
  %34 = getelementptr inbounds %"tokio::util::slab::slot::Slot<tokio::io::driver::scheduled_io::ScheduledIo>", %"tokio::util::slab::slot::Slot<tokio::io::driver::scheduled_io::ScheduledIo>"* %_9.121.i.i.i.i.i, i64 0, i32 3, i32 3
  invoke fastcc void @_ZN4core3ptr18real_drop_in_place17h4b8193e59cd485a1E(%"tokio::sync::task::atomic_waker::AtomicWaker"* nonnull align 8 dereferenceable(24) %34) #17
          to label %bb3.i.i.i.i.i.i.i unwind label %cleanup.loopexit.split-lp.i.i.i.i.i

cleanup1.i.i.i.i.i.i.i:                           ; preds = %bb2.i.i.i.i10.i.i.i.i.i.i.i
  %35 = landingpad { i8*, i32 }
          cleanup
  %36 = extractvalue { i8*, i32 } %35, 0
  %37 = extractvalue { i8*, i32 } %35, 1
  br label %bb3.i.i.i.i.i.i.i

_ZN4core3ptr18real_drop_in_place17hec17986a815092ecE.exit.i.i.i.i.i: ; preds = %bb2.i.i.i.i.i.i.i.i.i.i.i, %bb5.i.i.i.i.i.i.i
  %_14.i.i.i.i.i = icmp eq %"tokio::util::slab::slot::Slot<tokio::io::driver::scheduled_io::ScheduledIo>"* %10, %7
  br i1 %_14.i.i.i.i.i, label %bb3.i.i.i.i, label %bb10.i.i.i.i.i

cleanup.loopexit.i.i.i.i.i:                       ; preds = %bb2.i.i.i.i.i.i.i.i.i.i.i
  %lpad.loopexit.i.i.i.i.i = landingpad { i8*, i32 }
          cleanup
  br label %cleanup.body.i.i.i.i.i

cleanup.loopexit.split-lp.i.i.i.i.i:              ; preds = %cleanup.i.i.i.i.i.i.i, %bb3.i.i.i.i.i.i.i
  %lpad.loopexit.split-lp.i.i.i.i.i = landingpad { i8*, i32 }
          cleanup
  br label %cleanup.body.i.i.i.i.i

cleanup.body.i.i.i.i.i:                           ; preds = %cleanup.loopexit.split-lp.i.i.i.i.i, %cleanup.loopexit.i.i.i.i.i, %.noexc.i.i.i.i.i
  %eh.lpad-body.i.i.i.i.i = phi { i8*, i32 } [ %14, %.noexc.i.i.i.i.i ], [ %lpad.loopexit.i.i.i.i.i, %cleanup.loopexit.i.i.i.i.i ], [ %lpad.loopexit.split-lp.i.i.i.i.i, %cleanup.loopexit.split-lp.i.i.i.i.i ]
  %_1218.i.i.i.i.i = icmp eq %"tokio::util::slab::slot::Slot<tokio::io::driver::scheduled_io::ScheduledIo>"* %10, %7
  br i1 %_1218.i.i.i.i.i, label %cleanup.body.i.i.i.i, label %bb8.i.i.i.i.i

bb3.i.i.i.i:                                      ; preds = %_ZN4core3ptr18real_drop_in_place17hec17986a815092ecE.exit.i.i.i.i.i
  %.pre.i.i.i.i = load i64, i64* %5, align 8
  %phitmp.i.i.i.i = shl i64 %.pre.i.i.i.i, 6
  %_10.i.i.i.i.i = icmp eq i64 %phitmp.i.i.i.i, 0
  br i1 %_10.i.i.i.i.i, label %_ZN4core3ptr18real_drop_in_place17hb27fb0c9e6fe59a4E.exit, label %bb4.i.i.i.i.i

bb4.i.i.i.i.i:                                    ; preds = %bb3.i.i.i.i
  %38 = bitcast { i64*, i64 }* %0 to i8**
  %39 = load i8*, i8** %38, align 8, !nonnull !3
  tail call void @__rust_dealloc(i8* nonnull %39, i64 %phitmp.i.i.i.i, i64 8) #9
  br label %_ZN4core3ptr18real_drop_in_place17hb27fb0c9e6fe59a4E.exit

cleanup.i.i.i.i:                                  ; preds = %bb8.i.i.i.i.i
  %40 = landingpad { i8*, i32 }
          cleanup
  br label %cleanup.body.i.i.i.i

cleanup.body.i.i.i.i:                             ; preds = %cleanup.i.i.i.i, %cleanup.body.i.i.i.i.i, %.noexc.i.i.i.i
  %eh.lpad-body.i.i.i.i = phi { i8*, i32 } [ %40, %cleanup.i.i.i.i ], [ %eh.lpad-body.i.i.i.i.i, %cleanup.body.i.i.i.i.i ], [ %eh.lpad-body.i.i.i.i.i, %.noexc.i.i.i.i ]
  %41 = getelementptr inbounds { i64*, i64 }, { i64*, i64 }* %0, i64 0, i32 0
  %42 = load i64*, i64** %41, align 8, !nonnull !3
  %43 = load i64, i64* %5, align 8
  tail call fastcc void @_ZN5alloc5alloc8box_free17h98ac21c208ff1c57E(i64* nonnull %42, i64 %43) #17
  resume { i8*, i32 } %eh.lpad-body.i.i.i.i

_ZN4core3ptr18real_drop_in_place17hb27fb0c9e6fe59a4E.exit: ; preds = %bb4.i.i.i.i.i, %bb3.i.i.i.i, %bb2.i.i.i, %start
  ret void
}

; Function Attrs: norecurse nounwind nonlazybind readnone uwtable
define internal void @_ZN4core3ptr18real_drop_in_place17h801f84abd31e57b7E(%"std::thread::local::AccessError"* nocapture nonnull align 1 %_1) unnamed_addr #0 {
start:
  ret void
}

; Function Attrs: nonlazybind uwtable
define internal fastcc void @_ZN4core3ptr18real_drop_in_place17h81ef323e0c51fdcbE(%"tokio::park::either::Either<tokio::io::driver::Driver, tokio::park::thread::ParkThread>"* align 8 dereferenceable(48) %_1) unnamed_addr #1 personality i32 (i32, i32, i64, %"unwind::libunwind::_Unwind_Exception"*, %"unwind::libunwind::_Unwind_Context"*)* @rust_eh_personality {
start:
  %0 = getelementptr inbounds %"tokio::park::either::Either<tokio::io::driver::Driver, tokio::park::thread::ParkThread>", %"tokio::park::either::Either<tokio::io::driver::Driver, tokio::park::thread::ParkThread>"* %_1, i64 0, i32 0, i64 0
  %_2 = load i64, i64* %0, align 8, !range !51
  %1 = icmp eq i64 %_2, 0
  %2 = getelementptr inbounds %"tokio::park::either::Either<tokio::io::driver::Driver, tokio::park::thread::ParkThread>", %"tokio::park::either::Either<tokio::io::driver::Driver, tokio::park::thread::ParkThread>"* %_1, i64 0, i32 2
  br i1 %1, label %bb2, label %bb3

bb1:                                              ; preds = %bb3.i.i.i4, %bb3, %_ZN4core3ptr18real_drop_in_place17ha3f35c9d9cd9d3ecE.exit
  ret void

bb2:                                              ; preds = %start
  %3 = getelementptr %"tokio::park::either::Either<tokio::io::driver::Driver, tokio::park::thread::ParkThread>", %"tokio::park::either::Either<tokio::io::driver::Driver, tokio::park::thread::ParkThread>"* %_1, i64 0, i32 2, i64 1
  %.idx4.val.i.i.i.i = load i64, i64* %3, align 8
  %_2.i.i.i.i.i.i.i.i = icmp eq i64 %.idx4.val.i.i.i.i, 0
  br i1 %_2.i.i.i.i.i.i.i.i, label %bb6.i, label %bb4.i.i.i.i.i.i.i

bb4.i.i.i.i.i.i.i:                                ; preds = %bb2
  %.idx.i.i.i.i = bitcast [5 x i64]* %2 to i8**
  %.idx.val.i.i.i.i = load i8*, i8** %.idx.i.i.i.i, align 8
  %size.i.i.i.i.i.i.i.i = mul i64 %.idx4.val.i.i.i.i, 12
  tail call void @__rust_dealloc(i8* nonnull %.idx.val.i.i.i.i, i64 %size.i.i.i.i.i.i.i.i, i64 1) #9
  br label %bb6.i

bb3.i:                                            ; preds = %bb3.i.i.i
  %4 = landingpad { i8*, i32 }
          cleanup
  %5 = getelementptr inbounds %"tokio::park::either::Either<tokio::io::driver::Driver, tokio::park::thread::ParkThread>", %"tokio::park::either::Either<tokio::io::driver::Driver, tokio::park::thread::ParkThread>"* %_1, i64 0, i32 2, i64 4
  %6 = bitcast i64* %5 to i64**
  tail call fastcc void @_ZN4core3ptr18real_drop_in_place17h6ac5afa1bd86ed5cE(i64** nonnull align 8 dereferenceable(8) %6) #17
  resume { i8*, i32 } %4

bb5.i:                                            ; preds = %bb3.i.i.i, %bb6.i
  %7 = getelementptr inbounds %"tokio::park::either::Either<tokio::io::driver::Driver, tokio::park::thread::ParkThread>", %"tokio::park::either::Either<tokio::io::driver::Driver, tokio::park::thread::ParkThread>"* %_1, i64 0, i32 2, i64 4
  %8 = bitcast i64* %7 to i64**
  invoke void @"_ZN65_$LT$mio..poll..Registration$u20$as$u20$core..ops..drop..Drop$GT$4drop17hbe158bb9c1ab5543E"(i64** nonnull align 8 dereferenceable(8) %8)
          to label %_ZN4core3ptr18real_drop_in_place17ha3f35c9d9cd9d3ecE.exit unwind label %cleanup.i.i

cleanup.i.i:                                      ; preds = %bb5.i
  %9 = landingpad { i8*, i32 }
          cleanup
  tail call fastcc void @_ZN4core3ptr18real_drop_in_place17h5caf02987c84db7fE(i64** nonnull align 8 dereferenceable(8) %8) #17
  resume { i8*, i32 } %9

bb6.i:                                            ; preds = %bb4.i.i.i.i.i.i.i, %bb2
  %10 = getelementptr inbounds %"tokio::park::either::Either<tokio::io::driver::Driver, tokio::park::thread::ParkThread>", %"tokio::park::either::Either<tokio::io::driver::Driver, tokio::park::thread::ParkThread>"* %_1, i64 0, i32 2, i64 3
  %11 = bitcast i64* %10 to %"core::sync::atomic::AtomicUsize"**
  %self.val12.i.i.i = load %"core::sync::atomic::AtomicUsize"*, %"core::sync::atomic::AtomicUsize"** %11, align 8
  %_5.i.i.i.i = getelementptr inbounds %"core::sync::atomic::AtomicUsize", %"core::sync::atomic::AtomicUsize"* %self.val12.i.i.i, i64 0, i32 0, i64 0
  %12 = atomicrmw sub i64* %_5.i.i.i.i, i64 1 release
  %_2.i.i.i = icmp eq i64 %12, 1
  br i1 %_2.i.i.i, label %bb3.i.i.i, label %bb5.i

bb3.i.i.i:                                        ; preds = %bb6.i
  %13 = bitcast i64* %10 to i64**
  fence acquire
  invoke fastcc void @"_ZN5alloc4sync12Arc$LT$T$GT$9drop_slow17h5d84505ff6cb1dc8E"(i64** nonnull align 8 dereferenceable(8) %13)
          to label %bb5.i unwind label %bb3.i

_ZN4core3ptr18real_drop_in_place17ha3f35c9d9cd9d3ecE.exit: ; preds = %bb5.i
  tail call void @"_ZN70_$LT$mio..poll..RegistrationInner$u20$as$u20$core..ops..drop..Drop$GT$4drop17h45090a25a224e339E"(i64** nonnull align 8 dereferenceable(8) %8)
  br label %bb1

bb3:                                              ; preds = %start
  %14 = bitcast [5 x i64]* %2 to %"core::sync::atomic::AtomicUsize"**
  %self.val12.i.i.i1 = load %"core::sync::atomic::AtomicUsize"*, %"core::sync::atomic::AtomicUsize"** %14, align 8
  %_5.i.i.i.i2 = getelementptr inbounds %"core::sync::atomic::AtomicUsize", %"core::sync::atomic::AtomicUsize"* %self.val12.i.i.i1, i64 0, i32 0, i64 0
  %15 = atomicrmw sub i64* %_5.i.i.i.i2, i64 1 release
  %_2.i.i.i3 = icmp eq i64 %15, 1
  br i1 %_2.i.i.i3, label %bb3.i.i.i4, label %bb1

bb3.i.i.i4:                                       ; preds = %bb3
  %16 = bitcast [5 x i64]* %2 to i64**
  fence acquire
  tail call fastcc void @"_ZN5alloc4sync12Arc$LT$T$GT$9drop_slow17h11947988d5165e69E"(i64** nonnull align 8 dereferenceable(8) %16)
  br label %bb1
}

; Function Attrs: nonlazybind uwtable
define internal fastcc void @_ZN4core3ptr18real_drop_in_place17h897c32c5c49535c6E({ i64, i8* }* nocapture readonly align 8 dereferenceable(16) %_1) unnamed_addr #1 {
start:
  %0 = getelementptr inbounds { i64, i8* }, { i64, i8* }* %_1, i64 0, i32 0
  %1 = load i64, i64* %0, align 8, !range !61
  switch i64 %1, label %bb3.i [
    i64 3, label %bb1
    i64 0, label %bb1
    i64 1, label %bb2.i
  ]

bb1:                                              ; preds = %bb3.i.i.i4.i, %bb3.i, %bb3.i.i.i.i, %bb2.i, %start, %start
  ret void

bb2.i:                                            ; preds = %start
  %2 = getelementptr inbounds { i64, i8* }, { i64, i8* }* %_1, i64 0, i32 1
  %3 = bitcast i8** %2 to %"core::sync::atomic::AtomicUsize"**
  %self.val12.i.i.i.i = load %"core::sync::atomic::AtomicUsize"*, %"core::sync::atomic::AtomicUsize"** %3, align 8
  %_5.i.i.i.i.i = getelementptr inbounds %"core::sync::atomic::AtomicUsize", %"core::sync::atomic::AtomicUsize"* %self.val12.i.i.i.i, i64 0, i32 0, i64 0
  %4 = atomicrmw sub i64* %_5.i.i.i.i.i, i64 1 release
  %_2.i.i.i.i = icmp eq i64 %4, 1
  br i1 %_2.i.i.i.i, label %bb3.i.i.i.i, label %bb1

bb3.i.i.i.i:                                      ; preds = %bb2.i
  %5 = bitcast i8** %2 to i64**
  fence acquire
  tail call fastcc void @"_ZN5alloc4sync12Arc$LT$T$GT$9drop_slow17h9b2e2fe3654c86e4E"(i64** nonnull align 8 dereferenceable(8) %5)
  br label %bb1

bb3.i:                                            ; preds = %start
  %6 = getelementptr inbounds { i64, i8* }, { i64, i8* }* %_1, i64 0, i32 1
  %7 = bitcast i8** %6 to %"core::sync::atomic::AtomicUsize"**
  %self.val12.i.i.i1.i = load %"core::sync::atomic::AtomicUsize"*, %"core::sync::atomic::AtomicUsize"** %7, align 8
  %_5.i.i.i.i2.i = getelementptr inbounds %"core::sync::atomic::AtomicUsize", %"core::sync::atomic::AtomicUsize"* %self.val12.i.i.i1.i, i64 0, i32 0, i64 0
  %8 = atomicrmw sub i64* %_5.i.i.i.i2.i, i64 1 release
  %_2.i.i.i3.i = icmp eq i64 %8, 1
  br i1 %_2.i.i.i3.i, label %bb3.i.i.i4.i, label %bb1

bb3.i.i.i4.i:                                     ; preds = %bb3.i
  %9 = bitcast i8** %6 to i64**
  fence acquire
  tail call fastcc void @"_ZN5alloc4sync12Arc$LT$T$GT$9drop_slow17hbcd17717d774df8bE"(i64** nonnull align 8 dereferenceable(8) %9)
  br label %bb1
}

; Function Attrs: nonlazybind uwtable
define internal fastcc void @_ZN4core3ptr18real_drop_in_place17h8d31eaf3f74d642fE(%"std::future::GenFuture<main::{{closure}}::{{closure}}>"* align 8 dereferenceable(184) %_1) unnamed_addr #1 personality i32 (i32, i32, i64, %"unwind::libunwind::_Unwind_Exception"*, %"unwind::libunwind::_Unwind_Context"*)* @rust_eh_personality {
start:
  %0 = getelementptr inbounds %"std::future::GenFuture<main::{{closure}}::{{closure}}>", %"std::future::GenFuture<main::{{closure}}::{{closure}}>"* %_1, i64 0, i32 1, i32 3
  %_123.i = load i32, i32* %0, align 8
  switch i32 %_123.i, label %_ZN4core3ptr18real_drop_in_place17h97839a405d040727E.exit [
    i32 0, label %bb26.i
    i32 3, label %bb4.i
    i32 4, label %bb28.i
    i32 5, label %bb29.i
  ]

bb4.i:                                            ; preds = %bb4.i.i.i.i.i.i, %bb12.i, %start
  %1 = getelementptr inbounds %"std::future::GenFuture<main::{{closure}}::{{closure}}>", %"std::future::GenFuture<main::{{closure}}::{{closure}}>"* %_1, i64 0, i32 1, i32 2, i64 6
  %2 = bitcast i32* %1 to i64*
  %3 = load i64, i64* %2, align 8
  %_10.i.i.i.i = icmp eq i64 %3, 0
  br i1 %_10.i.i.i.i, label %bb23.i, label %bb4.i.i.i.i

bb4.i.i.i.i:                                      ; preds = %bb4.i
  %4 = getelementptr inbounds %"std::future::GenFuture<main::{{closure}}::{{closure}}>", %"std::future::GenFuture<main::{{closure}}::{{closure}}>"* %_1, i64 0, i32 1, i32 2, i64 4
  %5 = bitcast i32* %4 to i8**
  %6 = load i8*, i8** %5, align 8, !nonnull !3
  tail call void @__rust_dealloc(i8* nonnull %6, i64 %3, i64 1) #9
  br label %bb23.i

bb12.i:                                           ; preds = %bb4.i.i.i.i.i43.i, %bb29.i, %bb4.i.i.i.i.i38.i, %bb28.i
  %7 = getelementptr %"std::future::GenFuture<main::{{closure}}::{{closure}}>", %"std::future::GenFuture<main::{{closure}}::{{closure}}>"* %_1, i64 0, i32 1, i32 2, i64 14
  %8 = bitcast i32* %7 to i64*
  %.idx4.val.i.i.i = load i64, i64* %8, align 8
  %_2.i.i.i.i.i.i.i = icmp eq i64 %.idx4.val.i.i.i, 0
  br i1 %_2.i.i.i.i.i.i.i, label %bb4.i, label %bb4.i.i.i.i.i.i

bb4.i.i.i.i.i.i:                                  ; preds = %bb12.i
  %9 = getelementptr inbounds %"std::future::GenFuture<main::{{closure}}::{{closure}}>", %"std::future::GenFuture<main::{{closure}}::{{closure}}>"* %_1, i64 0, i32 1, i32 2, i64 12
  %.idx.i.i.i = bitcast i32* %9 to i8**
  %.idx.val.i.i.i = load i8*, i8** %.idx.i.i.i, align 8
  tail call void @__rust_dealloc(i8* nonnull %.idx.val.i.i.i, i64 %.idx4.val.i.i.i, i64 1) #9
  br label %bb4.i

bb23.i:                                           ; preds = %bb4.i.i.i.i, %bb4.i
  %10 = bitcast %"std::future::GenFuture<main::{{closure}}::{{closure}}>"* %_1 to %"tokio::net::tcp::stream::TcpStream"*
  call fastcc void @_ZN4core3ptr18real_drop_in_place17h52b5450cfbc055ffE(%"tokio::net::tcp::stream::TcpStream"* nonnull align 8 dereferenceable(56) %10)
  br label %_ZN4core3ptr18real_drop_in_place17h97839a405d040727E.exit

bb26.i:                                           ; preds = %start
  %11 = bitcast %"std::future::GenFuture<main::{{closure}}::{{closure}}>"* %_1 to %"tokio::net::tcp::stream::TcpStream"*
  call fastcc void @_ZN4core3ptr18real_drop_in_place17h52b5450cfbc055ffE(%"tokio::net::tcp::stream::TcpStream"* nonnull align 8 dereferenceable(56) %11)
  br label %_ZN4core3ptr18real_drop_in_place17h97839a405d040727E.exit

bb28.i:                                           ; preds = %start
  %12 = getelementptr %"std::future::GenFuture<main::{{closure}}::{{closure}}>", %"std::future::GenFuture<main::{{closure}}::{{closure}}>"* %_1, i64 0, i32 1, i32 4, i64 7
  %13 = bitcast i32* %12 to i64*
  %.idx4.val.i.i34.i = load i64, i64* %13, align 8
  %_2.i.i.i.i.i.i35.i = icmp eq i64 %.idx4.val.i.i34.i, 0
  br i1 %_2.i.i.i.i.i.i35.i, label %bb12.i, label %bb4.i.i.i.i.i38.i

bb4.i.i.i.i.i38.i:                                ; preds = %bb28.i
  %14 = getelementptr inbounds %"std::future::GenFuture<main::{{closure}}::{{closure}}>", %"std::future::GenFuture<main::{{closure}}::{{closure}}>"* %_1, i64 0, i32 1, i32 4, i64 5
  %.idx.i.i36.i = bitcast i32* %14 to i8**
  %.idx.val.i.i37.i = load i8*, i8** %.idx.i.i36.i, align 8
  tail call void @__rust_dealloc(i8* nonnull %.idx.val.i.i37.i, i64 %.idx4.val.i.i34.i, i64 1) #9
  br label %bb12.i

bb29.i:                                           ; preds = %start
  %15 = getelementptr %"std::future::GenFuture<main::{{closure}}::{{closure}}>", %"std::future::GenFuture<main::{{closure}}::{{closure}}>"* %_1, i64 0, i32 1, i32 4, i64 3
  %16 = bitcast i32* %15 to i64*
  %.idx4.val.i.i39.i = load i64, i64* %16, align 8
  %_2.i.i.i.i.i.i40.i = icmp eq i64 %.idx4.val.i.i39.i, 0
  br i1 %_2.i.i.i.i.i.i40.i, label %bb12.i, label %bb4.i.i.i.i.i43.i

bb4.i.i.i.i.i43.i:                                ; preds = %bb29.i
  %17 = getelementptr inbounds %"std::future::GenFuture<main::{{closure}}::{{closure}}>", %"std::future::GenFuture<main::{{closure}}::{{closure}}>"* %_1, i64 0, i32 1, i32 4, i64 1
  %.idx.i.i41.i = bitcast i32* %17 to i8**
  %.idx.val.i.i42.i = load i8*, i8** %.idx.i.i41.i, align 8
  tail call void @__rust_dealloc(i8* nonnull %.idx.val.i.i42.i, i64 %.idx4.val.i.i39.i, i64 1) #9
  br label %bb12.i

_ZN4core3ptr18real_drop_in_place17h97839a405d040727E.exit: ; preds = %bb26.i, %bb23.i, %start
  ret void
}

; Function Attrs: nounwind nonlazybind uwtable
define internal fastcc void @_ZN4core3ptr18real_drop_in_place17h90d8552239534afaE(i64* %_1.0.0.val, i64 %_1.0.1.val) unnamed_addr #5 {
start:
  %_2.i.i.i = icmp eq i64 %_1.0.1.val, 0
  br i1 %_2.i.i.i, label %"_ZN77_$LT$alloc..raw_vec..RawVec$LT$T$C$A$GT$$u20$as$u20$core..ops..drop..Drop$GT$4drop17h8ff23a8caf48dd54E.exit", label %bb4.i.i

bb4.i.i:                                          ; preds = %start
  %size.i.i.i = shl i64 %_1.0.1.val, 3
  %_2.i4.i.i = bitcast i64* %_1.0.0.val to i8*
  tail call void @__rust_dealloc(i8* nonnull %_2.i4.i.i, i64 %size.i.i.i, i64 8) #9
  br label %"_ZN77_$LT$alloc..raw_vec..RawVec$LT$T$C$A$GT$$u20$as$u20$core..ops..drop..Drop$GT$4drop17h8ff23a8caf48dd54E.exit"

"_ZN77_$LT$alloc..raw_vec..RawVec$LT$T$C$A$GT$$u20$as$u20$core..ops..drop..Drop$GT$4drop17h8ff23a8caf48dd54E.exit": ; preds = %bb4.i.i, %start
  ret void
}

; Function Attrs: nonlazybind uwtable
define internal fastcc void @_ZN4core3ptr18real_drop_in_place17h98054c6ad867e3d0E(%"core::ops::generator::GeneratorState<(), core::result::Result<(tokio::net::tcp::stream::TcpStream, std::net::addr::SocketAddr), std::io::error::Error>>"* align 8 dereferenceable(96) %_1) unnamed_addr #1 {
start:
  %0 = getelementptr inbounds %"core::ops::generator::GeneratorState<(), core::result::Result<(tokio::net::tcp::stream::TcpStream, std::net::addr::SocketAddr), std::io::error::Error>>", %"core::ops::generator::GeneratorState<(), core::result::Result<(tokio::net::tcp::stream::TcpStream, std::net::addr::SocketAddr), std::io::error::Error>>"* %_1, i64 0, i32 0, i64 0
  %1 = load i64, i64* %0, align 8, !range !28
  %2 = icmp eq i64 %1, 2
  br i1 %2, label %bb1, label %bb2

bb1:                                              ; preds = %bb3.i, %bb2.i, %start
  ret void

bb2:                                              ; preds = %start
  %3 = icmp eq i64 %1, 0
  %4 = getelementptr inbounds %"core::ops::generator::GeneratorState<(), core::result::Result<(tokio::net::tcp::stream::TcpStream, std::net::addr::SocketAddr), std::io::error::Error>>", %"core::ops::generator::GeneratorState<(), core::result::Result<(tokio::net::tcp::stream::TcpStream, std::net::addr::SocketAddr), std::io::error::Error>>"* %_1, i64 0, i32 2
  br i1 %3, label %bb2.i, label %bb3.i

bb2.i:                                            ; preds = %bb2
  %5 = bitcast [11 x i64]* %4 to %"tokio::net::tcp::stream::TcpStream"*
  tail call fastcc void @_ZN4core3ptr18real_drop_in_place17h52b5450cfbc055ffE(%"tokio::net::tcp::stream::TcpStream"* nonnull align 8 dereferenceable(56) %5)
  br label %bb1

bb3.i:                                            ; preds = %bb2
  %6 = bitcast [11 x i64]* %4 to %"std::io::error::Error"*
  tail call void @_ZN4core3ptr18real_drop_in_place17h664ae0e66d8bb2d1E(%"std::io::error::Error"* nonnull align 8 dereferenceable(16) %6)
  br label %bb1
}

; Function Attrs: nonlazybind uwtable
define internal fastcc void @_ZN4core3ptr18real_drop_in_place17ha34e7f3e5c4d81c1E({ [0 x %"core::cell::UnsafeCell<tokio::util::pad::CachePadded<tokio::runtime::thread_pool::owned::Owned>>"]*, i64 }* nocapture readonly align 8 dereferenceable(16) %_1) unnamed_addr #1 personality i32 (i32, i32, i64, %"unwind::libunwind::_Unwind_Exception"*, %"unwind::libunwind::_Unwind_Context"*)* @rust_eh_personality {
start:
  %0 = getelementptr inbounds { [0 x %"core::cell::UnsafeCell<tokio::util::pad::CachePadded<tokio::runtime::thread_pool::owned::Owned>>"]*, i64 }, { [0 x %"core::cell::UnsafeCell<tokio::util::pad::CachePadded<tokio::runtime::thread_pool::owned::Owned>>"]*, i64 }* %_1, i64 0, i32 0
  %1 = load [0 x %"core::cell::UnsafeCell<tokio::util::pad::CachePadded<tokio::runtime::thread_pool::owned::Owned>>"]*, [0 x %"core::cell::UnsafeCell<tokio::util::pad::CachePadded<tokio::runtime::thread_pool::owned::Owned>>"]** %0, align 8, !nonnull !3
  %2 = getelementptr inbounds { [0 x %"core::cell::UnsafeCell<tokio::util::pad::CachePadded<tokio::runtime::thread_pool::owned::Owned>>"]*, i64 }, { [0 x %"core::cell::UnsafeCell<tokio::util::pad::CachePadded<tokio::runtime::thread_pool::owned::Owned>>"]*, i64 }* %_1, i64 0, i32 1
  %3 = load i64, i64* %2, align 8
  %4 = getelementptr inbounds [0 x %"core::cell::UnsafeCell<tokio::util::pad::CachePadded<tokio::runtime::thread_pool::owned::Owned>>"], [0 x %"core::cell::UnsafeCell<tokio::util::pad::CachePadded<tokio::runtime::thread_pool::owned::Owned>>"]* %1, i64 0, i64 %3
  %_1416.i = icmp eq i64 %3, 0
  br i1 %_1416.i, label %_ZN5alloc5alloc8box_free17hb071a4daabbfbecaE.exit, label %bb10.preheader.i

bb10.preheader.i:                                 ; preds = %start
  %5 = getelementptr inbounds [0 x %"core::cell::UnsafeCell<tokio::util::pad::CachePadded<tokio::runtime::thread_pool::owned::Owned>>"], [0 x %"core::cell::UnsafeCell<tokio::util::pad::CachePadded<tokio::runtime::thread_pool::owned::Owned>>"]* %1, i64 0, i64 0
  br label %bb10.i

bb8.i:                                            ; preds = %cleanup.body.i, %.noexc
  %_9.015.i = phi %"core::cell::UnsafeCell<tokio::util::pad::CachePadded<tokio::runtime::thread_pool::owned::Owned>>"* [ %6, %.noexc ], [ %7, %cleanup.body.i ]
  %6 = getelementptr inbounds %"core::cell::UnsafeCell<tokio::util::pad::CachePadded<tokio::runtime::thread_pool::owned::Owned>>", %"core::cell::UnsafeCell<tokio::util::pad::CachePadded<tokio::runtime::thread_pool::owned::Owned>>"* %_9.015.i, i64 1
  invoke fastcc void @_ZN4core3ptr18real_drop_in_place17h31612d391bc71c78E(%"core::cell::UnsafeCell<tokio::util::pad::CachePadded<tokio::runtime::thread_pool::owned::Owned>>"* nonnull align 128 dereferenceable(128) %_9.015.i) #17
          to label %.noexc unwind label %cleanup

.noexc:                                           ; preds = %bb8.i
  %_12.i = icmp eq %"core::cell::UnsafeCell<tokio::util::pad::CachePadded<tokio::runtime::thread_pool::owned::Owned>>"* %6, %4
  br i1 %_12.i, label %cleanup.body, label %bb8.i

bb10.i:                                           ; preds = %_ZN4core3ptr18real_drop_in_place17h31612d391bc71c78E.exit.i, %bb10.preheader.i
  %_9.117.i = phi %"core::cell::UnsafeCell<tokio::util::pad::CachePadded<tokio::runtime::thread_pool::owned::Owned>>"* [ %7, %_ZN4core3ptr18real_drop_in_place17h31612d391bc71c78E.exit.i ], [ %5, %bb10.preheader.i ]
  %7 = getelementptr inbounds %"core::cell::UnsafeCell<tokio::util::pad::CachePadded<tokio::runtime::thread_pool::owned::Owned>>", %"core::cell::UnsafeCell<tokio::util::pad::CachePadded<tokio::runtime::thread_pool::owned::Owned>>"* %_9.117.i, i64 1
  %8 = getelementptr inbounds %"core::cell::UnsafeCell<tokio::util::pad::CachePadded<tokio::runtime::thread_pool::owned::Owned>>", %"core::cell::UnsafeCell<tokio::util::pad::CachePadded<tokio::runtime::thread_pool::owned::Owned>>"* %_9.117.i, i64 0, i32 1, i32 1, i32 3
  %9 = bitcast %"tokio::runtime::thread_pool::queue::worker::Worker<tokio::runtime::thread_pool::shared::Shared>"* %8 to %"core::sync::atomic::AtomicUsize"**
  %self.val12.i.i.i.i.i.i.i = load %"core::sync::atomic::AtomicUsize"*, %"core::sync::atomic::AtomicUsize"** %9, align 8
  %_5.i.i.i.i.i.i.i.i = getelementptr inbounds %"core::sync::atomic::AtomicUsize", %"core::sync::atomic::AtomicUsize"* %self.val12.i.i.i.i.i.i.i, i64 0, i32 0, i64 0
  %10 = atomicrmw sub i64* %_5.i.i.i.i.i.i.i.i, i64 1 release
  %_2.i.i.i.i.i.i.i = icmp eq i64 %10, 1
  br i1 %_2.i.i.i.i.i.i.i, label %bb3.i.i.i.i.i.i.i, label %bb4.i.i.i.i.i

bb3.i.i.i.i.i.i.i:                                ; preds = %bb10.i
  %11 = bitcast %"tokio::runtime::thread_pool::queue::worker::Worker<tokio::runtime::thread_pool::shared::Shared>"* %8 to i64**
  fence acquire
  invoke fastcc void @"_ZN5alloc4sync12Arc$LT$T$GT$9drop_slow17h27122a2f92d5b3e1E"(i64** nonnull align 8 dereferenceable(8) %11)
          to label %bb4.i.i.i.i.i unwind label %cleanup.i.i.i.i.i

bb4.i.i.i.i.i:                                    ; preds = %bb3.i.i.i.i.i.i.i, %bb10.i
  %12 = getelementptr inbounds %"core::cell::UnsafeCell<tokio::util::pad::CachePadded<tokio::runtime::thread_pool::owned::Owned>>", %"core::cell::UnsafeCell<tokio::util::pad::CachePadded<tokio::runtime::thread_pool::owned::Owned>>"* %_9.117.i, i64 0, i32 1, i32 1, i32 3, i32 3
  %13 = bitcast i64** %12 to {}**
  %14 = load {}*, {}** %13, align 8
  %15 = icmp eq {}* %14, null
  br i1 %15, label %_ZN4core3ptr18real_drop_in_place17h31612d391bc71c78E.exit.i, label %bb2.i.i.i.i.i.i.i.i

bb2.i.i.i.i.i.i.i.i:                              ; preds = %bb4.i.i.i.i.i
  %16 = bitcast {}* %14 to i64*
  invoke void @_ZN5tokio4task3raw7RawTask9drop_task17h698abef7adc201bbE(i64* nonnull %16)
          to label %_ZN4core3ptr18real_drop_in_place17h31612d391bc71c78E.exit.i unwind label %cleanup.loopexit.i

cleanup.i.i.i.i.i:                                ; preds = %bb3.i.i.i.i.i.i.i
  %17 = landingpad { i8*, i32 }
          cleanup
  %18 = getelementptr inbounds %"core::cell::UnsafeCell<tokio::util::pad::CachePadded<tokio::runtime::thread_pool::owned::Owned>>", %"core::cell::UnsafeCell<tokio::util::pad::CachePadded<tokio::runtime::thread_pool::owned::Owned>>"* %_9.117.i, i64 0, i32 1, i32 1, i32 3, i32 3
  invoke fastcc void @_ZN4core3ptr18real_drop_in_place17h2de24b7a29ebf508E(i64** nonnull align 8 dereferenceable(8) %18) #17
          to label %cleanup.body.i unwind label %cleanup.loopexit.split-lp.i

_ZN4core3ptr18real_drop_in_place17h31612d391bc71c78E.exit.i: ; preds = %bb2.i.i.i.i.i.i.i.i, %bb4.i.i.i.i.i
  %_14.i = icmp eq %"core::cell::UnsafeCell<tokio::util::pad::CachePadded<tokio::runtime::thread_pool::owned::Owned>>"* %7, %4
  br i1 %_14.i, label %bb3, label %bb10.i

cleanup.loopexit.i:                               ; preds = %bb2.i.i.i.i.i.i.i.i
  %lpad.loopexit.i = landingpad { i8*, i32 }
          cleanup
  br label %cleanup.body.i

cleanup.loopexit.split-lp.i:                      ; preds = %cleanup.i.i.i.i.i
  %lpad.loopexit.split-lp.i = landingpad { i8*, i32 }
          cleanup
  br label %cleanup.body.i

cleanup.body.i:                                   ; preds = %cleanup.loopexit.split-lp.i, %cleanup.loopexit.i, %cleanup.i.i.i.i.i
  %eh.lpad-body.i = phi { i8*, i32 } [ %17, %cleanup.i.i.i.i.i ], [ %lpad.loopexit.i, %cleanup.loopexit.i ], [ %lpad.loopexit.split-lp.i, %cleanup.loopexit.split-lp.i ]
  %_1214.i = icmp eq %"core::cell::UnsafeCell<tokio::util::pad::CachePadded<tokio::runtime::thread_pool::owned::Owned>>"* %7, %4
  br i1 %_1214.i, label %cleanup.body, label %bb8.i

bb3:                                              ; preds = %_ZN4core3ptr18real_drop_in_place17h31612d391bc71c78E.exit.i
  %.pre = load i64, i64* %2, align 8
  %phitmp = shl i64 %.pre, 7
  %_10.i = icmp eq i64 %phitmp, 0
  br i1 %_10.i, label %_ZN5alloc5alloc8box_free17hb071a4daabbfbecaE.exit, label %bb4.i

bb4.i:                                            ; preds = %bb3
  %19 = bitcast { [0 x %"core::cell::UnsafeCell<tokio::util::pad::CachePadded<tokio::runtime::thread_pool::owned::Owned>>"]*, i64 }* %_1 to i8**
  %20 = load i8*, i8** %19, align 8, !nonnull !3
  tail call void @__rust_dealloc(i8* nonnull %20, i64 %phitmp, i64 128) #9
  br label %_ZN5alloc5alloc8box_free17hb071a4daabbfbecaE.exit

_ZN5alloc5alloc8box_free17hb071a4daabbfbecaE.exit: ; preds = %bb4.i, %bb3, %start
  ret void

cleanup:                                          ; preds = %bb8.i
  %21 = landingpad { i8*, i32 }
          cleanup
  br label %cleanup.body

cleanup.body:                                     ; preds = %cleanup, %cleanup.body.i, %.noexc
  %eh.lpad-body = phi { i8*, i32 } [ %21, %cleanup ], [ %eh.lpad-body.i, %cleanup.body.i ], [ %eh.lpad-body.i, %.noexc ]
  %22 = bitcast { [0 x %"core::cell::UnsafeCell<tokio::util::pad::CachePadded<tokio::runtime::thread_pool::owned::Owned>>"]*, i64 }* %_1 to i64**
  %23 = load i64*, i64** %22, align 8, !nonnull !3
  %24 = load i64, i64* %2, align 8
  tail call fastcc void @_ZN5alloc5alloc8box_free17hb071a4daabbfbecaE(i64* nonnull %23, i64 %24) #17
  resume { i8*, i32 } %eh.lpad-body
}

; Function Attrs: nonlazybind uwtable
define internal fastcc void @_ZN4core3ptr18real_drop_in_place17ha3a3ed0fa0316897E({ i64*, i64 }* align 8 dereferenceable(16) %_1) unnamed_addr #1 {
start:
  tail call void @"_ZN56_$LT$std..io..Guard$u20$as$u20$core..ops..drop..Drop$GT$4drop17h9d646c2a3ad901faE"({ i64*, i64 }* nonnull align 8 dereferenceable(16) %_1)
  ret void
}

; Function Attrs: nonlazybind uwtable
define internal fastcc void @_ZN4core3ptr18real_drop_in_place17ha4eaf2372c827098E(%"tokio::net::tcp::listener::TcpListener"* align 8 dereferenceable(56) %_1) unnamed_addr #1 personality i32 (i32, i32, i64, %"unwind::libunwind::_Unwind_Exception"*, %"unwind::libunwind::_Unwind_Context"*)* @rust_eh_personality {
start:
  %_8.i.i.i = alloca %"std::io::error::Error", align 8
  %_4.i.i.i = alloca i64*, align 8
  %inner.i.i.i = alloca i64*, align 8
  %_6.i.i = alloca %"core::result::Result<(), std::io::error::Error>", align 8
  %io.i.i = alloca %"mio::net::tcp::TcpListener", align 8
  %_2.i.i = alloca %"core::option::Option<mio::net::tcp::TcpListener>", align 8
  %0 = bitcast %"core::option::Option<mio::net::tcp::TcpListener>"* %_2.i.i to i8*
  call void @llvm.lifetime.start.p0i8(i64 24, i8* nonnull %0)
  %z.i.i.i.sroa.0.0.tmp.sroa.0.0..sroa_cast3.i.i.i.i.sroa_idx.i.i.i.i = getelementptr inbounds %"tokio::net::tcp::listener::TcpListener", %"tokio::net::tcp::listener::TcpListener"* %_1, i64 0, i32 0, i64 0
  %z.i.i.i.sroa.0.0.copyload.i.i.i.i = load i64, i64* %z.i.i.i.sroa.0.0.tmp.sroa.0.0..sroa_cast3.i.i.i.i.sroa_idx.i.i.i.i, align 8, !noalias !100
  %1 = getelementptr inbounds %"tokio::net::tcp::listener::TcpListener", %"tokio::net::tcp::listener::TcpListener"* %_1, i64 0, i32 1, i32 1, i32 2
  %z.i.i.i.sroa.4.0.tmp.sroa.0.0..sroa_cast3.i.i.i.i.sroa_cast.i.i.i.i = bitcast [2 x i64]* %1 to i8*
  store i64 0, i64* %z.i.i.i.sroa.0.0.tmp.sroa.0.0..sroa_cast3.i.i.i.i.sroa_idx.i.i.i.i, align 8, !noalias !108
  %_3.sroa.0.0..sroa_idx3.i.i.i.i = getelementptr inbounds %"core::option::Option<mio::net::tcp::TcpListener>", %"core::option::Option<mio::net::tcp::TcpListener>"* %_2.i.i, i64 0, i32 0, i64 0
  store i64 %z.i.i.i.sroa.0.0.copyload.i.i.i.i, i64* %_3.sroa.0.0..sroa_idx3.i.i.i.i, align 8, !alias.scope !100
  %_3.sroa.6.0..sroa_idx8.i.i.i.i = getelementptr inbounds %"core::option::Option<mio::net::tcp::TcpListener>", %"core::option::Option<mio::net::tcp::TcpListener>"* %_2.i.i, i64 0, i32 2
  %_3.sroa.6.0..sroa_cast9.i.i.i.i = bitcast [2 x i64]* %_3.sroa.6.0..sroa_idx8.i.i.i.i to i8*
  call void @llvm.memcpy.p0i8.p0i8.i64(i8* nonnull align 8 %_3.sroa.6.0..sroa_cast9.i.i.i.i, i8* nonnull align 8 %z.i.i.i.sroa.4.0.tmp.sroa.0.0..sroa_cast3.i.i.i.i.sroa_cast.i.i.i.i, i64 16, i1 false) #9
  %2 = icmp eq i64 %z.i.i.i.sroa.0.0.copyload.i.i.i.i, 1
  br i1 %2, label %bb3.i.i, label %bb6.thread.i

bb6.thread.i:                                     ; preds = %start
  call void @llvm.lifetime.end.p0i8(i64 24, i8* nonnull %0)
  br label %bb5.i

bb1.i.i:                                          ; preds = %bb9.i.i, %bb5.i.i
  %3 = insertvalue { i8*, i32 } undef, i8* %.sroa.0.0.i.i, 0
  %4 = insertvalue { i8*, i32 } %3, i32 %.sroa.6.0.i.i, 1
  br label %cleanup.body.i

bb3.i.i:                                          ; preds = %start
  %5 = bitcast %"mio::net::tcp::TcpListener"* %io.i.i to i8*
  call void @llvm.lifetime.start.p0i8(i64 16, i8* nonnull %5)
  call void @llvm.memcpy.p0i8.p0i8.i64(i8* nonnull align 8 %5, i8* nonnull align 8 %_3.sroa.6.0..sroa_cast9.i.i.i.i, i64 16, i1 false)
  %6 = getelementptr inbounds %"core::result::Result<(), std::io::error::Error>", %"core::result::Result<(), std::io::error::Error>"* %_6.i.i, i64 0, i32 0, i64 0
  call void @llvm.lifetime.start.p0i8(i64 16, i8* nonnull %6)
  %7 = getelementptr inbounds %"tokio::net::tcp::listener::TcpListener", %"tokio::net::tcp::listener::TcpListener"* %_1, i64 0, i32 1, i32 3
  %8 = bitcast i64** %inner.i.i.i to i8*
  call void @llvm.lifetime.start.p0i8(i64 8, i8* nonnull %8), !noalias !109
  %9 = bitcast i64** %_4.i.i.i to i8*
  call void @llvm.lifetime.start.p0i8(i64 8, i8* nonnull %9), !noalias !109
  %_5.i.i.i = bitcast %"tokio::io::poll_evented::Inner"* %7 to i64**
  %10 = invoke i64* @_ZN5tokio2io6driver6Handle5inner17heb68f52174073405E(i64** noalias nonnull readonly align 8 dereferenceable(8) %_5.i.i.i)
          to label %.noexc.i.i unwind label %cleanup.i.i

.noexc.i.i:                                       ; preds = %bb3.i.i
  store i64* %10, i64** %_4.i.i.i, align 8, !noalias !109
  %11 = icmp eq i64* %10, null
  br i1 %11, label %bb3.i.i.i, label %bb5.i.i.i

bb1.i.i.i:                                        ; preds = %cleanup2.i.i.i, %cleanup.i.i.i
  %.sroa.0.0.i.i.i = phi i8* [ %19, %cleanup.i.i.i ], [ %22, %cleanup2.i.i.i ]
  %.sroa.6.0.i.i.i = phi i32 [ %20, %cleanup.i.i.i ], [ %23, %cleanup2.i.i.i ]
  %12 = insertvalue { i8*, i32 } undef, i8* %.sroa.0.0.i.i.i, 0
  %13 = insertvalue { i8*, i32 } %12, i32 %.sroa.6.0.i.i.i, 1
  br label %cleanup.body.i.i

bb3.i.i.i:                                        ; preds = %.noexc.i.i
  %14 = bitcast %"std::io::error::Error"* %_8.i.i.i to i8*
  call void @llvm.lifetime.start.p0i8(i64 16, i8* nonnull %14), !noalias !109
  %15 = invoke { {}*, [3 x i64]* } @"_ZN3std5error161_$LT$impl$u20$core..convert..From$LT$$RF$str$GT$$u20$for$u20$alloc..boxed..Box$LT$dyn$u20$std..error..Error$u2b$core..marker..Sync$u2b$core..marker..Send$GT$$GT$4from17h3380ca6fb4be57d1E"([0 x i8]* noalias nonnull readonly align 1 bitcast (<{ [12 x i8] }>* @anon.112aa5216417f3e30cbfa40815f3b444.13 to [0 x i8]*), i64 12)
          to label %.noexc.i.i.i unwind label %cleanup2.i.i.i, !noalias !109

.noexc.i.i.i:                                     ; preds = %bb3.i.i.i
  %_4.0.i.i.i.i = extractvalue { {}*, [3 x i64]* } %15, 0
  %_4.1.i.i.i.i = extractvalue { {}*, [3 x i64]* } %15, 1
  invoke void @_ZN3std2io5error5Error4_new17h9d3cc36308b63b32E(%"std::io::error::Error"* noalias nocapture nonnull sret dereferenceable(16) %_8.i.i.i, i8 16, {}* noalias nonnull align 1 %_4.0.i.i.i.i, [3 x i64]* noalias readonly align 8 dereferenceable(24) %_4.1.i.i.i.i)
          to label %_ZN4core3ptr18real_drop_in_place17h0b30e8d9d34d5f31E.exit.i.i.i unwind label %cleanup2.i.i.i, !noalias !109

bb5.i.i.i:                                        ; preds = %.noexc.i.i
  store i64* %10, i64** %inner.i.i.i, align 8, !noalias !109
  call void @llvm.lifetime.end.p0i8(i64 8, i8* nonnull %9), !noalias !109
  %_2.i.i.i.i = getelementptr inbounds i64, i64* %10, i64 2
  %16 = bitcast i64* %_2.i.i.i.i to %"tokio::io::driver::Inner"*
  %_13.0.i.i.i = bitcast %"mio::net::tcp::TcpListener"* %io.i.i to {}*
  invoke void @_ZN5tokio2io6driver5Inner17deregister_source17h6390581a88aedb6eE(%"core::result::Result<(), std::io::error::Error>"* noalias nocapture nonnull sret dereferenceable(16) %_6.i.i, %"tokio::io::driver::Inner"* nonnull align 8 dereferenceable(128) %16, {}* nonnull align 1 %_13.0.i.i.i, [3 x i64]* noalias readonly align 8 dereferenceable(24) bitcast ({ void (%"mio::net::tcp::TcpListener"*)*, i64, i64, void (%"core::result::Result<(), std::io::error::Error>"*, %"mio::net::tcp::TcpListener"*, %"mio::poll::Poll"*, i64, i64, i64)*, void (%"core::result::Result<(), std::io::error::Error>"*, %"mio::net::tcp::TcpListener"*, %"mio::poll::Poll"*, i64, i64, i64)*, void (%"core::result::Result<(), std::io::error::Error>"*, %"mio::net::tcp::TcpListener"*, %"mio::poll::Poll"*)* }* @vtable.a to [3 x i64]*))
          to label %bb12.i.i.i unwind label %cleanup.i.i.i

_ZN4core3ptr18real_drop_in_place17h0b30e8d9d34d5f31E.exit.i.i.i: ; preds = %.noexc.i.i.i
  call void @llvm.memcpy.p0i8.p0i8.i64(i8* nonnull align 8 %6, i8* nonnull align 8 %14, i64 16, i1 false)
  call void @llvm.lifetime.end.p0i8(i64 16, i8* nonnull %14), !noalias !109
  call void @llvm.lifetime.end.p0i8(i64 8, i8* nonnull %9), !noalias !109
  br label %bb4.i.i

bb12.i.i.i:                                       ; preds = %bb5.i.i.i
  %17 = atomicrmw sub i64* %10, i64 1 release, !noalias !109
  %_2.i.i.i.i.i = icmp eq i64 %17, 1
  br i1 %_2.i.i.i.i.i, label %bb3.i.i.i.i.i, label %bb4.i.i

bb3.i.i.i.i.i:                                    ; preds = %bb12.i.i.i
  fence acquire
  invoke fastcc void @"_ZN5alloc4sync12Arc$LT$T$GT$9drop_slow17h5d84505ff6cb1dc8E"(i64** nonnull align 8 dereferenceable(8) %inner.i.i.i)
          to label %bb4.i.i unwind label %cleanup.i.i

cleanup.i.i.i:                                    ; preds = %bb5.i.i.i
  %18 = landingpad { i8*, i32 }
          cleanup
  %19 = extractvalue { i8*, i32 } %18, 0
  %20 = extractvalue { i8*, i32 } %18, 1
  invoke fastcc void @_ZN4core3ptr18real_drop_in_place17hb67afcbcf1d2d5b8E(i64** nonnull align 8 dereferenceable(8) %inner.i.i.i) #17
          to label %bb1.i.i.i unwind label %cleanup.i.i

cleanup2.i.i.i:                                   ; preds = %.noexc.i.i.i, %bb3.i.i.i
  %21 = landingpad { i8*, i32 }
          cleanup
  %22 = extractvalue { i8*, i32 } %21, 0
  %23 = extractvalue { i8*, i32 } %21, 1
  invoke fastcc void @_ZN4core3ptr18real_drop_in_place17h0b30e8d9d34d5f31E(i64** nonnull align 8 dereferenceable(8) %_4.i.i.i) #17
          to label %bb1.i.i.i unwind label %cleanup.i.i

bb4.i.i:                                          ; preds = %bb3.i.i.i.i.i, %bb12.i.i.i, %_ZN4core3ptr18real_drop_in_place17h0b30e8d9d34d5f31E.exit.i.i.i
  call void @llvm.lifetime.end.p0i8(i64 8, i8* nonnull %8), !noalias !109
  %24 = load i8, i8* %6, align 8, !range !90
  switch i8 %24, label %bb2.i.i.i.i.i [
    i8 3, label %bb7.i.i
    i8 1, label %bb7.i.i
    i8 0, label %bb7.i.i
  ]

bb2.i.i.i.i.i:                                    ; preds = %bb4.i.i
  %25 = getelementptr inbounds %"core::result::Result<(), std::io::error::Error>", %"core::result::Result<(), std::io::error::Error>"* %_6.i.i, i64 0, i32 2, i64 7
  %26 = bitcast i8* %25 to %"std::io::error::Custom"**
  %27 = load %"std::io::error::Custom"*, %"std::io::error::Custom"** %26, align 8, !nonnull !3
  %28 = bitcast %"std::io::error::Custom"* %27 to {}**
  %29 = load {}*, {}** %28, align 8, !nonnull !3
  %30 = getelementptr inbounds %"std::io::error::Custom", %"std::io::error::Custom"* %27, i64 0, i32 1, i32 1
  %31 = bitcast [3 x i64]** %30 to void ({}*)***
  %32 = load void ({}*)**, void ({}*)*** %31, align 8, !nonnull !3
  %33 = load void ({}*)*, void ({}*)** %32, align 8, !invariant.load !3, !nonnull !3
  %34 = bitcast %"std::io::error::Custom"* %27 to i8*
  invoke void %33({}* nonnull align 1 %29)
          to label %bb3.i.i.i.i.i.i.i.i unwind label %cleanup.i.i.i.i.i.i.i.i

bb3.i.i.i.i.i.i.i.i:                              ; preds = %bb2.i.i.i.i.i
  %35 = bitcast [3 x i64]** %30 to i64**
  %36 = load i64*, i64** %35, align 8, !nonnull !3
  %37 = getelementptr inbounds i64, i64* %36, i64 1
  %38 = load i64, i64* %37, align 8, !invariant.load !3, !alias.scope !112
  %_10.i.i.i.i.i.i.i.i.i = icmp eq i64 %38, 0
  br i1 %_10.i.i.i.i.i.i.i.i.i, label %_ZN4core3ptr18real_drop_in_place17h27b9bb4166fdb623E.exit.i.i.i.i.i, label %bb4.i.i.i.i.i.i.i.i.i

bb4.i.i.i.i.i.i.i.i.i:                            ; preds = %bb3.i.i.i.i.i.i.i.i
  %39 = bitcast %"std::io::error::Custom"* %27 to i8**
  %40 = load i8*, i8** %39, align 8, !nonnull !3
  %41 = getelementptr inbounds i64, i64* %36, i64 2
  %42 = load i64, i64* %41, align 8, !invariant.load !3, !alias.scope !112
  call void @__rust_dealloc(i8* nonnull %40, i64 %38, i64 %42) #9, !noalias !112
  br label %_ZN4core3ptr18real_drop_in_place17h27b9bb4166fdb623E.exit.i.i.i.i.i

cleanup.i.i.i.i.i.i.i.i:                          ; preds = %bb2.i.i.i.i.i
  %43 = landingpad { i8*, i32 }
          cleanup
  %44 = getelementptr inbounds %"std::io::error::Custom", %"std::io::error::Custom"* %27, i64 0, i32 0, i64 0
  %45 = bitcast %"std::io::error::Custom"* %27 to i8**
  %46 = load i8*, i8** %45, align 8, !nonnull !3
